(dp1
VA2131000
p2
(V\u62C6\u5165\u8D44\u91D1
p3
I1
I1
tp4
sVA3100000
p5
(V\u5C11\u6570\u80A1\u4E1C\u6743\u76CA
p6
I1
I1
tp7
sVE2207000
p8
(V\u672A\u5206\u914D\u5229\u6DA6\u6298\u80A1
p9
I2
I0
tp10
sVE2115000
p11
(V\u51CF:\u5F25\u8865\u5B50\u516C\u53F8\u4E8F\u635F
p12
I2
I0
tp13
sVG2119000
p14
(V\u5176\u4ED6\u7ECF\u8425\u6027\u8D1F\u503A\u7684\u589E\u52A0(\u51CF:\u51CF\u5C11)
p15
I3
I1
tp16
sVG1239000
p17
(V\u8D2D\u4E70\u5546\u54C1\u548C\u52B3\u52A1\u6240\u652F\u4ED8\u7684\u73B0\u91D1
p18
I3
I1
tp19
sVE1406000
p20
(V\u51CF:\u672A\u5F25\u8865\u5B50\u516C\u53F8\u4E8F\u635F 
p21
I2
I0
tp22
sVA1239000
p23
(V\u5176\u4ED6\u957F\u671F\u6295\u8D44
p24
I1
I1
tp25
sVA1239001
p26
(V\u5176\u5B83\u957F\u671F\u6295\u8D44\u51C0\u989D 
p27
I1
I1
tp28
sVA1239002
p29
(V\u51CF:\u5176\u4ED6\u957F\u671F\u6295\u8D44\u51CF\u503C\u51C6\u5907
p30
I1
I1
tp31
sVE1302000
p32
(V\u6295\u8D44\u6536\u76CA
p33
I2
I0
tp34
sVH2200000
p35
(V\u6295\u8D44\u6D3B\u52A8\u4EA7\u751F\u7684\u73B0\u91D1\u6D41\u51FA\u5C0F\u8BA1
p36
I3
I0
tp37
sVH6108000
p38
(V\u957F\u671F\u5F85\u644A\u8D39\u7528\u644A\u9500
p39
I3
I0
tp40
sVG1145100
p41
(V\u5176\u4E2D:\u6536\u5230\u7684\u589E\u503C\u7A0E\u9500\u9879\u7A0E\u989D\u548C\u9000\u56DE\u7684\u589E\u503C\u7A0E\u989D
p42
I3
I1
tp43
sVB2154100
p44
(V\u5176\u4E2D:\u5E94\u4ED8\u5173\u8054\u516C\u53F8\u6B3E
p45
I1
I0
tp46
sVB2184000
p47
(V\u9884\u63D0\u8D39\u7528
p48
I1
I0
tp49
sVD1403000
p50
(V\u6295\u8D44\u51C0\u6536\u76CA
p51
I2
I1
tp52
sVE2206000
p53
(V\u8F6C\u4F5C\u5956\u91D1\u7684\u5229\u6DA6
p54
I2
I0
tp55
sVA2290000
p56
(V\u5176\u4ED6\u957F\u671F\u8D1F\u503A
p57
I1
I1
tp58
sVB1483000
p59
(V\u51CF:\u4E34\u65F6\u8BBE\u65BD\u644A\u9500
p60
I1
I0
tp61
sVG6151000
p62
(V\u589E\u503C\u7A0E\u589E\u52A0\u51C0\u989D
p63
I3
I1
tp64
sVD1110000
p65
(V\u53D7\u6258\u6295\u8D44\u7BA1\u7406\u6536\u76CA 
p66
I2
I1
tp67
sVG1213000
p68
(V\u652F\u4ED8\u7684\u6D3B\u671F\u5B58\u6B3E\u4EE5\u5916\u7684\u5176\u4ED6\u5B58\u6B3E
p69
I3
I1
tp70
sVD2206000
p71
(V\u63D0\u53D6\u98CE\u9669\u51C6\u5907 
p72
I2
I1
tp73
sVB1111002
p74
(V\u51CF:\u77ED\u671F\u6295\u8D44\u8DCC\u4EF7\u51C6\u5907
p75
I1
I0
tp76
sVB1111000
p77
(V\u77ED\u671F\u6295\u8D44
p78
I1
I0
tp79
sVB1111001
p80
(V\u77ED\u671F\u6295\u8D44\u51C0\u989D
p81
I1
I0
tp82
sVG1107000
p83
(V\u5B58\u6B3E\u589E\u52A0\u51C0\u989D
p84
I3
I1
tp85
sVH6115000
p86
(V\u9012\u5EF6\u7A0E\u6B3E\u8D37\u9879(\u51CF:\u501F\u9879)
p87
I3
I0
tp88
sVA1240000
p89
(V\u56FA\u5B9A\u8D44\u4EA7\u5408\u8BA1
p90
I1
I1
tp91
sVA2181000
p92
(V\u53D1\u884C\u77ED\u671F\u503A\u5238
p93
I1
I1
tp94
sVE1204000
p95
(V\u51CF:\u5B58\u8D27\u8DCC\u4EF7\u635F\u5931
p96
I2
I0
tp97
sVH6105700
p98
(V\u5176\u4E2D:\u5728\u5EFA\u5DE5\u7A0B\u51CF\u503C\u51C6\u5907
p99
I3
I0
tp100
sVB2211000
p101
(V\u5E94\u4ED8\u503A\u5238
p102
I1
I0
tp103
sVH1109000
p104
(V\u5229\u606F\u6536\u5165
p105
I3
I0
tp106
sVH6201000
p107
(V\u4EE5\u56FA\u5B9A\u8D44\u4EA7\u507F\u8FD8\u503A\u52A1
p108
I3
I0
tp109
sVE2308000
p110
(V\u63D0\u53D6\u6FC0\u52B1\u57FA\u91D1
p111
I2
I0
tp112
sVD1109000
p113
(V\u81EA\u8425\u8BC1\u5238\u5DEE\u4EF7\u6536\u5165 
p114
I2
I1
tp115
sVH2203500
p116
(V\u5408\u5E76\u62A5\u8868\u8303\u56F4\u53D8\u5316\u6240\u51CF\u5C11\u7684\u73B0\u91D1
p117
I3
I0
tp118
sVH6107000
p119
(V\u65E0\u5F62\u8D44\u4EA7\u644A\u9500
p120
I3
I0
tp121
sVA2141000
p122
(V\u59D4\u6258\u5B58\u6B3E/\u53D7\u6258\u8D44\u91D1
p123
I1
I1
tp124
sVB1140002
p125
(V\u51CF:\u5E94\u6536\u6B3E\u9879\u574F\u8D26\u51C6\u5907
p126
I1
I0
tp127
sVA2271000
p128
(V\u957F\u671F\u5E94\u4ED8\u6B3E
p129
I1
I1
tp130
sVA3213000
p131
(V\u76C8\u4F59\u516C\u79EF
p132
I1
I1
tp133
sVH2105000
p134
(V\u6536\u5230\u7684\u5176\u5B83\u4E0E\u6295\u8D44\u6D3B\u52A8\u6709\u5173\u7684\u73B0\u91D1
p135
I3
I0
tp136
sVB1134000
p137
(V\u5E94\u6536\u5E2D\u4F4D\u8D39
p138
I1
I0
tp139
sVB1418002
p140
(V\u51CF:\u571F\u5730\u4F7F\u7528\u6743\u79DF\u8D41\u6743\u51CF\u503C\u51C6\u5907
p141
I1
I0
tp142
sVH6301100
p143
(V\u5176\u4E2D:\u8D27\u5E01\u8D44\u91D1\u7684\u671F\u672B\u4F59\u989D
p144
I3
I0
tp145
sVE2209000
p146
(V\u63D0\u53D6\u4F01\u4E1A\u50A8\u5907\u57FA\u91D1
p147
I2
I0
tp148
sVB1000002
p149
(V\u51CF:\u51CF\u503C\u51C6\u5907\u603B\u8BA1
p150
I1
I0
tp151
sVB1000000
p152
(V\u8D44\u4EA7\u603B\u8BA1
p153
I1
I0
tp154
sVA1330000
p155
(V\u5176\u5B83\u8D44\u4EA7
p156
I1
I1
tp157
sVB2000000
p158
(V\u8D1F\u503A\u5408\u8BA1
p159
I1
I0
tp160
sVE1401000
p161
(V\u5229\u6DA6\u603B\u989D
p162
I2
I0
tp163
sVA2200000
p164
(V\u957F\u671F\u8D1F\u503A\u5408\u8BA1
p165
I1
I1
tp166
sVB1351000
p167
(V\u5DE5\u7A0B\u7269\u8D44
p168
I1
I0
tp169
sVB2190000
p170
(V\u5176\u5B83\u6D41\u52A8\u8D1F\u503A
p171
I1
I0
tp172
sVA1143000
p173
(V\u5E94\u6536\u8FDB\u51FA\u53E3\u62BC\u6C47
p174
I1
I1
tp175
sVH6108500
p176
(V\u5176\u4ED6\u957F\u671F\u8D44\u4EA7\u644A\u9500
p177
I3
I0
tp178
sVG1227000
p179
(V\u652F\u4ED8\u8425\u4E1A\u7A0E\u53CA\u9644\u52A0
p180
I3
I1
tp181
sVA1161000
p182
(V\u9884\u4ED8\u5E10\u6B3E
p183
I1
I1
tp184
sVG1132000
p185
(V\u4EE3\u53D1\u884C\u8BC1\u5238\u6536\u5230\u7684\u73B0\u91D1\u51C0\u989D
p186
I3
I1
tp187
sVE2210000
p188
(V\u63D0\u53D6\u4F01\u4E1A\u53D1\u5C55\u57FA\u91D1
p189
I2
I0
tp190
sVG6302100
p191
(V\u5176\u4E2D:\u73B0\u91D1\u7B49\u4EF7\u7269\u7684\u671F\u521D\u4F59\u989D
p192
I3
I1
tp193
sVA2122100
p194
(V\u7CFB\u7EDF\u5185\u5B58\u6B3E
p195
I1
I1
tp196
sVG2108000
p197
(V\u957F\u671F\u5F85\u644A\u8D39\u7528\u7684\u51CF\u5C11(\u51CF:\u589E\u52A0)
p198
I3
I1
tp199
sVE1115000
p200
(V\u6C47\u5151\u635F\u5931
p201
I2
I0
tp202
sVG1206000
p203
(V\u4EE3\u53D1\u884C\u8BC1\u5238\u652F\u4ED8\u7684\u73B0\u91D1\u51C0\u989D
p204
I3
I1
tp205
sVG6104100
p206
(V\u8BA1\u63D0\u7684\u574F\u5E10\u51C6\u5907\u6216\u8F6C\u9500\u7684\u574F\u5E10
p207
I3
I1
tp208
sVA3232000
p209
(V\u5916\u6C47\u8D44\u672C\u51C6\u5907\u91D1
p210
I1
I1
tp211
sVG1111000
p212
(V\u540C\u4E1A\u5B58\u6B3E\u51C0\u989D
p213
I3
I1
tp214
sVE2204000
p215
(V\u63D0\u53D6\u6CD5\u5B9A\u516C\u76CA\u91D1
p216
I2
I0
tp217
sVB1313002
p218
(V\u51CF:\u623F\u5C4B\u3001\u5EFA\u7B51\u7269\u51CF\u503C\u51C6\u5907
p219
I1
I0
tp220
sVG1122000
p221
(V\u518D\u8D34\u73B0\u6536\u5230\u7684\u73B0\u91D1
p222
I3
I1
tp223
sVA1310002
p224
(V\u51CF:\u65E0\u5F62\u8D44\u4EA7\u51CF\u503C\u51C6\u5907 
p225
I1
I1
tp226
sVA1247000
p227
(V\u5F85\u5904\u7406\u56FA\u5B9A\u8D44\u4EA7\u635F\u5931
p228
I1
I1
tp229
sVG4010000
p230
(V##\u5176\u5B83\u5F71\u54CD\u73B0\u91D1\u7684\u9879\u76EE
p231
I3
I1
tp232
sVD1112000
p233
(V\u4E70\u5165\u8FD4\u552E\u8BC1\u5238\u6536\u5165 
p234
I2
I1
tp235
sVG1235000
p236
(V\u4E70\u5165\u8FD4\u552E\u8BC1\u5238\u652F\u4ED8\u7684\u73B0\u91D1
p237
I3
I1
tp238
sVA1310000
p239
(V\u65E0\u5F62\u8D44\u4EA7
p240
I1
I1
tp241
sVA1131000
p242
(V\u62C6\u51FA\u8D44\u91D1
p243
I1
I1
tp244
sVG6128000
p245
(V\u4E70\u5165\u8FD4\u552E\u8BC1\u5238\u7684\u51CF\u5C11(\u51CF:\u589E\u52A0)
p246
I3
I1
tp247
sVG6146000
p248
(V\u5176\u4ED6\u7ECF\u8425\u6027\u5E94\u4ED8\u9879\u76EE\u7684\u589E\u52A0(\u51CF:\u51CF\u5C11)
p249
I3
I1
tp250
sVB1480002
p251
(V\u51CF:\u5176\u4ED6\u51CF\u503C\u51C6\u5907
p252
I1
I0
tp253
sVB1480000
p254
(V\u5176\u5B83\u8D44\u4EA7\u5408\u8BA1
p255
I1
I0
tp256
sVA1173100
p257
(V\u4EE3\u4E70\u5356\u8BC1\u5238
p258
I1
I1
tp259
sVA1102000
p260
(V\u8D35\u91D1\u5C5E
p261
I1
I1
tp262
sVG2101000
p263
(V\u7F34\u5B58\u4E2D\u592E\u94F6\u884C\u51C6\u5907\u91D1\u7684\u51CF\u5C11(\u51CF:\u589E\u52A0)
p264
I3
I1
tp265
sVG1241000
p266
(V\u53D7\u6258\u8D44\u4EA7\u7BA1\u7406\u652F\u4ED8\u7684\u73B0\u91D1\u51C0\u989D
p267
I3
I1
tp268
sVB1371000
p269
(V\u56FA\u5B9A\u8D44\u4EA7\u6E05\u7406
p270
I1
I0
tp271
sVH4000000
p272
(V\u6C47\u7387\u53D8\u52A8\u5BF9\u73B0\u91D1\u7684\u5F71\u54CD
p273
I3
I0
tp274
sVG6209000
p275
(V\u503A\u52A1\u8F6C\u4E3A\u8D44\u672C
p276
I3
I1
tp277
sVG1203000
p278
(V\u51FA\u53E3\u62BC\u6C47\u589E\u52A0\u652F\u4ED8\u7684\u73B0\u91D1
p279
I3
I1
tp280
sVB1187100
p281
(V\u4E00\u5E74\u5185\u5230\u671F\u7684\u957F\u671F\u503A\u6743\u6295\u8D44
p282
I1
I0
tp283
sVG2127000
p284
(V\u5206\u5F97\u80A1\u5229\u6216\u5229\u6DA6\u6240\u6536\u5230\u7684\u73B0\u91D1
p285
I3
I1
tp286
sVG6100000
p287
(V\u7ECF\u8425\u6D3B\u52A8\u4EA7\u751F\u7684\u73B0\u91D1\u6D41\u91CF\u51C0\u989D
p288
I3
I1
tp289
sVA1151002
p290
(V\u51CF:\u5E94\u6536\u5E10\u6B3E\u574F\u5E10\u51C6\u5907
p291
I1
I1
tp292
sVA1151001
p293
(V\u5E94\u6536\u5E10\u6B3E\u51C0\u989D
p294
I1
I1
tp295
sVA1151000
p296
(V\u5E94\u6536\u5E10\u6B3E
p297
I1
I1
tp298
sVG2113000
p299
(V\u540C\u4E1A\u95F4\u5B58\u6B3E\u7684\u589E\u52A0(\u51CF:\u51CF\u5C11)
p300
I3
I1
tp301
sVA1152000
p302
(V\u5176\u4ED6\u5E94\u6536\u6B3E
p303
I1
I1
tp304
sVD2105000
p305
(V\u98CE\u9669\u51C6\u5907\u91D1\u8F6C\u5165 
p306
I2
I1
tp307
sVE2110000
p308
(V\u5355\u9879\u8F6C\u51FA\u7684\u670D\u52A1\u8D39\u6536\u5165
p309
I2
I0
tp310
sVH1105000
p311
(V\u6536\u5230\u7684\u7A0E\u8D39\u8FD4\u8FD8
p312
I3
I0
tp313
sVH6112000
p314
(V\u56FA\u5B9A\u8D44\u4EA7\u62A5\u5E9F\u635F\u5931
p315
I3
I0
tp316
sVB2153000
p317
(V\u5E94\u4ED8\u798F\u5229\u8D39
p318
I1
I0
tp319
sVH6309000
p320
(V\u5176\u4ED6\u73B0\u91D1\u53CA\u73B0\u91D1\u7B49\u4EF7\u7269\u589E\u51CF\u989D
p321
I3
I0
tp322
sVA1222000
p323
(V\u51CF:\u5F85\u8F6C\u79DF\u8D41\u8D44\u4EA7
p324
I1
I1
tp325
sVH3205000
p326
(V\u878D\u8D44\u79DF\u8D41\u6240\u652F\u4ED8\u7684\u73B0\u91D1
p327
I3
I0
tp328
sVH3201000
p329
(V\u507F\u8FD8\u503A\u52A1\u6240\u652F\u4ED8\u7684\u73B0\u91D1
p330
I3
I0
tp331
sVA1201100
p332
(V\u4E2D\u671F\u8D37\u6B3E 
p333
I1
I1
tp334
sVE2112000
p335
(V\u5355\u9879\u7559\u7528\u7684\u5229\u6DA6
p336
I2
I0
tp337
sVA2102000
p338
(V\u5411\u4E2D\u592E\u94F6\u884C\u501F\u6B3E
p339
I1
I1
tp340
sVB1141002
p341
(V\u51CF:\u5E94\u6536\u8D26\u6B3E\u574F\u8D26\u51C6\u5907
p342
I1
I0
tp343
sVB1141001
p344
(V\u5E94\u6536\u8D26\u6B3E\u51C0\u989D
p345
I1
I0
tp346
sVB1141000
p347
(V\u5E94\u6536\u8D26\u6B3E
p348
I1
I0
tp349
sVH1211000
p350
(V\u5229\u606F\u652F\u51FA
p351
I3
I0
tp352
sVA2144000
p353
(V\u4EE3\u5151\u4ED8\u8BC1\u5238\u6B3E
p354
I1
I1
tp355
sVB1312001
p356
(V\u56FA\u5B9A\u8D44\u4EA7\u51C0\u989D
p357
I1
I0
tp358
sVB1312000
p359
(V\u56FA\u5B9A\u8D44\u4EA7\u51C0\u503C
p360
I1
I0
tp361
sVG6115000
p362
(V\u5B58\u8D27\u7684\u51CF\u5C11(\u51CF:\u589E\u52A0)
p363
I3
I1
tp364
sVB1312002
p365
(V\u51CF:\u56FA\u5B9A\u8D44\u4EA7\u51CF\u503C\u51C6\u5907
p366
I1
I0
tp367
sVG3204000
p368
(V\u507F\u4ED8\u5229\u606F\u6240\u652F\u4ED8\u7684\u73B0\u91D1
p369
I3
I1
tp370
sVA1144000
p371
(V\u5E94\u6536\u80A1\u5229
p372
I1
I1
tp373
sVA2126000
p374
(V\u6C47\u51FA\u6C47\u6B3E
p375
I1
I1
tp376
sVE2304000
p377
(V\u5E94\u4ED8\u666E\u901A\u80A1\u80A1\u5229
p378
I2
I0
tp379
sVA2251000
p380
(V\u957F\u671F\u501F\u6B3E
p381
I1
I1
tp382
sVB1300000
p383
(V\u56FA\u5B9A\u8D44\u4EA7\u5408\u8BA1
p384
I1
I0
tp385
sVE2109000
p386
(V\u51CF:\u5F52\u8FD8\u501F\u6B3E\u7684\u5229\u6DA6
p387
I2
I0
tp388
sVG6301000
p389
(V\u73B0\u91D1\u53CA\u73B0\u91D1\u7B49\u4EF7\u7269\u7684\u671F\u672A\u4F59\u989D
p390
I3
I1
tp391
sVE1501200
p392
(V\u52A0:\u975E\u6B63\u5E38\u7ECF\u8425\u9879\u76EE\u6536\u76CA\u8C03\u6574 
p393
I2
I0
tp394
sVG2129000
p395
(V\u6295\u8D44\u6027\u503A\u5238\u6295\u8D44\u51CF\u5C11\u6536\u5230\u7684\u73B0\u91D1
p396
I3
I1
tp397
sVG1000000
p398
(V\u7ECF\u8425\u6D3B\u52A8\u4EA7\u751F\u7684\u73B0\u91D1\u6D41\u91CF\u51C0\u989D
p399
I3
I1
tp400
sVB2172000
p401
(V\u5176\u5B83\u5E94\u4EA4\u6B3E
p402
I1
I0
tp403
sVB2241000
p404
(V\u4E13\u9879\u5E94\u4ED8\u6B3E
p405
I1
I0
tp406
sVH6102000
p407
(V\u5C11\u6570\u80A1\u4E1C\u635F\u76CA
p408
I3
I0
tp409
sVG6104310
p410
(V\u5176\u4E2D:\u81EA\u8425\u8BC1\u5238\u635F\u5931\u51C6\u5907
p411
I3
I1
tp412
sVB1486000
p413
(V\u5176\u5B83\u957F\u671F\u5E94\u6536\u6B3E
p414
I1
I0
tp415
sVG6123000
p416
(V\u53D7\u6258\u8D44\u4EA7\u7684\u51CF\u5C11(\u51CF:\u589E\u52A0)
p417
I3
I1
tp418
sVA1271000
p419
(V\u5F85\u5904\u7406\u62B5\u503A\u8D44\u4EA7
p420
I1
I1
tp421
sVB1290000
p422
(V\u5176\u5B83\u957F\u671F\u6295\u8D44
p423
I1
I0
tp424
sVB1153000
p425
(V\u9884\u7F34\u7A0E\u91D1
p426
I1
I0
tp427
sVA1106100
p428
(V\u5176\u4E2D:\u7ECF\u7EAA\u4E1A\u52A1\u5BA2\u6237\u5907\u4ED8\u91D1
p429
I1
I1
tp430
sVA2158000
p431
(V\u5E94\u4ED8\u80A1\u5229/\u5E94\u4ED8\u5229\u6DA6
p432
I1
I1
tp433
sVE1404000
p434
(V\u52A0:\u5176\u5B83\u7A0E\u540E\u5229\u6DA6
p435
I2
I0
tp436
sVE3102000
p437
(V\u81EA\u7136\u707E\u5BB3\u53D1\u751F\u7684\u635F\u5931
p438
I2
I0
tp439
sVE1113000
p440
(V\u7BA1\u7406\u8D39\u7528
p441
I2
I0
tp442
sVG2104000
p443
(V\u8D37\u6B3E\u7684\u51CF\u5C11(\u51CF:\u589E\u52A0)
p444
I3
I1
tp445
sVB1510000
p446
(V\u9012\u5EF6\u7A0E\u6B3E\u501F\u9879
p447
I1
I0
tp448
sVG1224000
p449
(V\u62C6\u51FA\u8D44\u91D1\u652F\u4ED8\u7684\u73B0\u91D1
p450
I3
I1
tp451
sVB2201000
p452
(V\u957F\u671F\u501F\u6B3E
p453
I1
I0
tp454
sVG6127000
p455
(V\u5E94\u6536\u6B3E\u9879\u7684\u51CF\u5C11(\u51CF:\u589E\u52A0)
p456
I3
I1
tp457
sVH6203000
p458
(V\u4EE5\u56FA\u5B9A\u8D44\u4EA7\u8FDB\u884C\u957F\u671F\u6295\u8D44
p459
I3
I0
tp460
sVD1401000
p461
(V\u8425\u4E1A\u5229\u6DA6
p462
I2
I1
tp463
sVG6210000
p464
(V\u4E00\u5E74\u5185\u5230\u671F\u7684\u53EF\u8F6C\u6362\u516C\u53F8\u503A\u5238
p465
I3
I1
tp466
sVH1207000
p467
(V\u652F\u4ED8\u7684\u5404\u9879\u7A0E\u8D39
p468
I3
I0
tp469
sVA2169000
p470
(V\u5176\u4ED6\u5E94\u4EA4\u6B3E
p471
I1
I1
tp472
sVB2100000
p473
(V\u6D41\u52A8\u8D1F\u503A\u5408\u8BA1
p474
I1
I0
tp475
sVG1230000
p476
(V\u59D4\u6258\u5B58\u8D37\u6B3E\u4E1A\u52A1\u652F\u4ED8\u7684\u73B0\u91D1//\u652F\u4ED8\u7684\u59D4\u6258\u8D44\u91D1
p477
I3
I1
tp478
sVA1186000
p479
(V\u5F85\u5904\u7406\u6D41\u52A8\u8D44\u4EA7\u635F\u5931
p480
I1
I1
tp481
sVB1222001
p482
(V\u5176\u4E2D:\u80A1\u6743\u6295\u8D44\u5DEE\u989D
p483
I1
I0
tp484
sVA1132000
p485
(V\u62C6\u653E\u8054\u884C\u6B3E\u9879
p486
I1
I1
tp487
sVA1231000
p488
(V\u957F\u671F\u80A1\u6743\u6295\u8D44
p489
I1
I1
tp490
sVA1231001
p491
(V\u957F\u671F\u80A1\u6743\u6295\u8D44\u51C0\u989D 
p492
I1
I1
tp493
sVA1231002
p494
(V\u51CF:\u957F\u671F\u80A1\u6743\u6295\u8D44\u51CF\u503C\u51C6\u5907
p495
I1
I1
tp496
sVG2204000
p497
(V\u503A\u6743\u6027\u6295\u8D44\u6240\u652F\u4ED8\u7684\u73B0\u91D1
p498
I3
I1
tp499
sVB2151000
p500
(V\u5E94\u4ED8\u5DE5\u8D44
p501
I1
I0
tp502
sVA1242000
p503
(V\u51CF:\u7D2F\u8BA1\u6298\u65E7
p504
I1
I1
tp505
sVB1451000
p506
(V\u5F00\u529E\u8D39
p507
I1
I0
tp508
sVD1210000
p509
(V\u6C47\u5151\u635F\u5931 
p510
I2
I1
tp511
sVA1410000
p512
(V\u9012\u5EF6\u7A0E\u6B3E\u501F\u9879
p513
I1
I1
tp514
sVE1501100
p515
(V\u6263\u9664\u975E\u7ECF\u5E38\u6027\u635F\u76CA\u7684\u51C0\u5229\u6DA6
p516
I2
I0
tp517
sVH2103000
p518
(V\u53D6\u5F97\u503A\u5238\u5229\u606F\u6536\u5165\u6240\u6536\u5230\u7684\u73B0\u91D1
p519
I3
I0
tp520
sVD2306000
p521
(V\u52A0\uFF1A\u5438\u6536\u5408\u5E76\u589E\u52A0\u672A\u5206\u914D\u5229\u6DA6
p522
I2
I1
tp523
sVH3203100
p524
(V\u5176\u4E2D:\u5B50\u516C\u53F8\u652F\u4ED8\u5C11\u6570\u80A1\u4E1C\u7684\u80A1\u5229
p525
I3
I0
tp526
sVG1218000
p527
(V\u5BF9\u5916\u53D1\u653E\u7684\u59D4\u6258\u8D37\u6B3E\u51C0\u989D
p528
I3
I1
tp529
sVD1404000
p530
(V\u9EC4\u91D1\u4E70\u5356\u51C0\u6536\u76CA 
p531
I2
I1
tp532
sVB1101900
p533
(V\u5176\u4ED6\u8D27\u5E01\u8D44\u91D1
p534
I1
I0
tp535
sVH6206000
p536
(V\u4E00\u5E74\u5185\u5230\u671F\u7684\u53EF\u8F6C\u6362\u516C\u53F8\u503A\u5238
p537
I3
I0
tp538
sVA2151000
p539
(V\u5B58\u5165\u77ED\u671F\u4FDD\u8BC1\u91D1
p540
I1
I1
tp541
sVB3213200
p542
(V\u5176\u4E2D:\u8865\u5145\u6D41\u52A8\u8D44\u672C
p543
I1
I0
tp544
sVB1155000
p545
(V\u671F\u8D27\u4FDD\u8BC1\u91D1
p546
I1
I0
tp547
sVA1172000
p548
(V\u81EA\u8425\u8BC1\u5238
p549
I1
I1
tp550
sVA1172001
p551
(V\u81EA\u8425\u8BC1\u5238\u51C0\u989D
p552
I1
I1
tp553
sVA1172002
p554
(V\u51CF:\u81EA\u8425\u8BC1\u5238\u8DCC\u4EF7\u51C6\u5907
p555
I1
I1
tp556
sVA2113000
p557
(V\u4FE1\u6258\u5B58\u6B3E
p558
I1
I1
tp559
sVH3200000
p560
(V\u7B79\u8D44\u6D3B\u52A8\u4EA7\u751F\u7684\u73B0\u91D1\u6D41\u51FA\u5C0F\u8BA1
p561
I3
I0
tp562
sVG3000000
p563
(V\u7B79\u8D44\u6D3B\u52A8\u4EA7\u751F\u7684\u73B0\u91D1\u6D41\u91CF\u51C0\u989D
p564
I3
I1
tp565
sVD1118000
p566
(V\u6C47\u5151\u6536\u76CA 
p567
I2
I1
tp568
sVG1135000
p569
(V\u4E70\u5165\u8FD4\u552E\u8BC1\u5238\u5230\u671F\u8FD4\u552E\u6536\u5230\u7684\u73B0\u91D1
p570
I3
I1
tp571
sVG1129000
p572
(V\u4EE3\u4E70\u5356\u8BC1\u5238\u6536\u5230\u7684\u73B0\u91D1\u51C0\u989D
p573
I3
I1
tp574
sVA2261000
p575
(V\u5E94\u4ED8\u503A\u5238
p576
I1
I1
tp577
sVD2102000
p578
(V\u52A0:\u5E74\u521D\u672A\u5206\u914D\u5229\u6DA6
p579
I2
I1
tp580
sVA1163002
p581
(V\u51CF:\u77ED\u671F\u6295\u8D44\u8DCC\u4EF7\u51C6\u5907
p582
I1
I1
tp583
sVA1163000
p584
(V\u77ED\u671F\u6295\u8D44
p585
I1
I1
tp586
sVA2000000
p587
(V\u8D1F\u503A\u5408\u8BA1
p588
I1
I1
tp589
sVE1301000
p590
(V\u8425\u4E1A\u5229\u6DA6
p591
I2
I0
tp592
sVD1406000
p593
(V\u975E\u8425\u4E1A\u6027\u6295\u8D44\u6536\u76CA
p594
I2
I1
tp595
sVA1200000
p596
(V\u957F\u671F\u8D44\u4EA7\u5408\u8BA1
p597
I1
I1
tp598
sVH4010000
p599
(V\u5176\u4ED6\u5BF9\u73B0\u91D1\u7684\u5F71\u54CD
p600
I3
I0
tp601
sVG1222000
p602
(V\u5B58\u653E\u540C\u4E1A\u6B3E\u9879\u51C0\u989D
p603
I3
I1
tp604
sVH1212000
p605
(V\u5F52\u8FD8\u7684\u5B58\u6B3E
p606
I3
I0
tp607
sVG1146000
p608
(V\u6536\u56DE\u7684\u5DF2\u4E8E\u524D\u671F\u6838\u9500\u7684\u8D37\u6B3E
p609
I3
I1
tp610
sVE2303000
p611
(V\u63D0\u53D6\u4EFB\u610F\u76C8\u4F59\u516C\u79EF
p612
I2
I0
tp613
sVA2101100
p614
(V\u5176\u4E2D:\u8D28\u62BC\u501F\u6B3E
p615
I1
I1
tp616
sVB2221000
p617
(V\u957F\u671F\u5E94\u4ED8\u6B3E
p618
I1
I0
tp619
sVH1205000
p620
(V\u652F\u4ED8\u7684\u6240\u5F97\u7A0E\u6B3E
p621
I3
I0
tp622
sVG1143000
p623
(V\u5176\u4ED6\u8425\u4E1A\u6536\u5165\u6536\u5230\u7684\u73B0\u91D1
p624
I3
I1
tp625
sVA2154000
p626
(V\u9884\u6536\u5E10\u6B3E
p627
I1
I1
tp628
sVB1410002
p629
(V\u51CF:\u65E0\u5F62\u8D44\u4EA7\u51CF\u503C\u51C6\u5907
p630
I1
I0
tp631
sVB1410000
p632
(V\u65E0\u5F62\u8D44\u4EA7
p633
I1
I0
tp634
sVB1410001
p635
(V\u65E0\u5F62\u8D44\u4EA7\u51C0\u989D
p636
I1
I0
tp637
sVA2101000
p638
(V\u77ED\u671F\u501F\u6B3E
p639
I1
I1
tp640
sVG1127000
p641
(V\u5DF2\u6838\u9500\u5446\u5E10\u8D37\u6B3E\u53CA\u5229\u606F\u6536\u56DE\u6536\u5230\u7684\u73B0\u91D1
p642
I3
I1
tp643
sVG1101000
p644
(V\u6536\u56DE\u7684\u4E2D\u957F\u671F\u8D37\u6B3E
p645
I3
I1
tp646
sVG2111000
p647
(V\u7ECF\u8425\u6027\u8D44\u4EA7\u7684\u51CF\u5C11(\u589E\u52A0)\u5C0F\u8BA1
p648
I3
I1
tp649
sVE1307000
p650
(V\u52A0:\u4EE5\u524D\u5E74\u5EA6\u635F\u76CA\u8C03\u6574
p651
I2
I0
tp652
sVD1214000
p653
(V\u6298\u65E7\u8D39 
p654
I2
I1
tp655
sVB1202002
p656
(V\u51CF:\u957F\u671F\u80A1\u6743\u6295\u8D44\u51CF\u503C\u51C6\u5907
p657
I1
I0
tp658
sVB1186000
p659
(V\u5F85\u5904\u7406\u6D41\u52A8\u8D44\u4EA7\u51C0\u635F\u5931
p660
I1
I0
tp661
sVB1202000
p662
(V\u957F\u671F\u80A1\u6743\u6295\u8D44
p663
I1
I0
tp664
sVB1131000
p665
(V\u5E94\u6536\u7968\u636E
p666
I1
I0
tp667
sVD1504000
p668
(V\u51CF\uFF1A\u5C11\u6570\u80A1\u4E1C\u635F\u76CA
p669
I2
I1
tp670
sVA1223000
p671
(V\u7ECF\u8425\u79DF\u8D41\u8D44\u4EA7
p672
I1
I1
tp673
sVG1201000
p674
(V\u5BA2\u6237\u4FDD\u8BC1\u91D1\u51CF\u5C11\u652F\u4ED8\u7684\u73B0\u91D1
p675
I3
I1
tp676
sVD2304000
p677
(V\u5E94\u4ED8\u666E\u901A\u80A1\u80A1\u5229 
p678
I2
I1
tp679
sVA1107000
p680
(V\u4EA4\u6613\u4FDD\u8BC1\u91D1
p681
I1
I1
tp682
sVD1107000
p683
(V\u8D34\u73B0\u5229\u606F\u6536\u5165
p684
I2
I1
tp685
sVA1121000
p686
(V\u5B58\u653E\u4E2D\u592E\u94F6\u884C\u6B3E\u9879
p687
I1
I1
tp688
sVE1409000
p689
(V\u8D2D\u5E76\u5229\u6DA6
p690
I2
I0
tp691
sVG1228000
p692
(V\u7968\u636E\u878D\u8D44\u51C0\u989D
p693
I3
I1
tp694
sVG3206000
p695
(V\u51CF\u5C11\u6CE8\u518C\u8D44\u672C\u6240\u652F\u4ED8\u7684\u73B0\u91D1
p696
I3
I1
tp697
sVE3101000
p698
(V\u51FA\u552E\u5904\u7F6E\u90E8\u95E8\u6216\u88AB\u6295\u8D44\u5355\u4F4D\u6240\u5F97\u6536\u76CA
p699
I2
I0
tp700
sVB1361002
p701
(V\u51CF:\u5728\u5EFA\u5DE5\u7A0B\u51CF\u503C\u51C6\u5907
p702
I1
I0
tp703
sVB2185000
p704
(V\u5F85\u6263\u7A0E\u91D1
p705
I1
I0
tp706
sVA2111000
p707
(V\u77ED\u671F\u5B58\u6B3E
p708
I1
I1
tp709
sVA2211000
p710
(V\u8F6C\u8D37\u6B3E\u8D44\u91D1
p711
I1
I1
tp712
sVG6102000
p713
(V\u52A0:\u5C11\u6570\u80A1\u4E1C\u6743\u76CA
p714
I3
I1
tp715
sVD1119000
p716
(V\u6295\u8D44\u6536\u76CA
p717
I2
I1
tp718
sVE1201000
p719
(V\u4E3B\u8425\u4E1A\u52A1\u5229\u6DA6
p720
I2
I0
tp721
sVD1415000
p722
(V\u51CF\uFF1A\u8D44\u4EA7\u635F\u5931\u51C6\u5907 
p723
I2
I1
tp724
sVB1452000
p725
(V\u957F\u671F\u5F85\u644A\u8D39\u7528
p726
I1
I0
tp727
sVB1488002
p728
(V\u51CF:\u59D4\u6258\u8D37\u6B3E\u51CF\u503C\u51C6\u5907
p729
I1
I0
tp730
sVB1488000
p731
(V\u59D4\u6258\u8D37\u6B3E
p732
I1
I0
tp733
sVA1261000
p734
(V\u957F\u671F\u5F85\u644A\u8D39\u7528
p735
I1
I1
tp736
sVA1141000
p737
(V\u77ED\u671F\u8D37\u6B3E
p738
I1
I1
tp739
sVG1137000
p740
(V\u5176\u4ED6\u8BC1\u5238\u4E1A\u52A1\u6536\u5230\u7684\u73B0\u91D1
p741
I3
I1
tp742
sVE2106000
p743
(V\u5E94\u4EA4\u7279\u79CD\u57FA\u91D1
p744
I2
I0
tp745
sVB1314002
p746
(V\u51CF:\u673A\u5668\u8BBE\u5907\u51CF\u503C\u51C6\u5907
p747
I1
I0
tp748
sVH6302000
p749
(V\u73B0\u91D1\u53CA\u73B0\u91D1\u7B49\u4EF7\u7269\u671F\u521D\u4F59\u989D
p750
I3
I0
tp751
sVE1402000
p752
(V\u51CF:\u6240\u5F97\u7A0E
p753
I2
I0
tp754
sVE1112000
p755
(V\u8425\u4E1A\u8D39\u7528
p756
I2
I0
tp757
sVB1202001
p758
(V\u957F\u671F\u80A1\u6743\u6295\u8D44\u51C0\u989D
p759
I1
I0
tp760
sVD1108000
p761
(V\u4E2D\u95F4\u4E1A\u52A1\u6536\u5165 
p762
I2
I1
tp763
sVB2174000
p764
(V\u9012\u5EF6\u6536\u5165
p765
I1
I0
tp766
sVE1306000
p767
(V\u51CF:\u8425\u4E1A\u5916\u652F\u51FA
p768
I2
I0
tp769
sVG1112000
p770
(V\u5411\u4E2D\u592E\u94F6\u884C\u501F\u6B3E\u53CA\u5176\u4ED6\u91D1\u878D\u4F01\u4E1A\u62C6\u5165\u8D44\u91D1\u51C0\u989D
p771
I3
I1
tp772
sVH6100000
p773
(V\u7ECF\u8425\u6D3B\u52A8\u4EA7\u751F\u7684\u73B0\u91D1\u6D41\u91CF\u51C0\u989D(\u95F4\u63A5\u6CD5)
p774
I3
I0
tp775
sVH6119000
p776
(V\u5176\u5B83
p777
I3
I0
tp778
sVG6107000
p779
(V\u65E0\u5F62\u8D44\u4EA7\u3001\u9012\u5EF6\u8D44\u4EA7\u53CA\u5176\u4ED6\u8D44\u4EA7\u644A\u9500\u5408\u8BA1
p780
I3
I1
tp781
sVG6134000
p782
(V\u7ECF\u8425\u6027\u5E94\u4ED8\u9879\u76EE\u7684\u589E\u52A0(\u51CF:\u51CF\u5C11)
p783
I3
I1
tp784
sVA1187100
p785
(V\u4E00\u5E74\u5185\u5230\u671F\u7684\u957F\u671F\u503A\u6743\u6295\u8D44 
p786
I1
I1
tp787
sVH2106000
p788
(V\u53D6\u5F97\u6295\u8D44\u6536\u76CA\u6240\u6536\u5230\u7684\u73B0\u91D1
p789
I3
I0
tp790
sVB2231000
p791
(V\u4F4F\u623F\u5468\u8F6C\u91D1
p792
I1
I0
tp793
sVB1412002
p794
(V\u51CF:\u8F6F\u4EF6\u51CF\u503C\u51C6\u5907
p795
I1
I0
tp796
sVG1217000
p797
(V\u5BF9\u5916\u53D1\u653E\u7684\u77ED\u671F\u8D37\u6B3E\u51C0\u989D
p798
I3
I1
tp799
sVG1108000
p800
(V\u5438\u6536\u7684\u6D3B\u671F\u5B58\u6B3E\u51C0\u989D
p801
I3
I1
tp802
sVD1407000
p803
(V\u8865\u8D34\u6536\u5165 
p804
I2
I1
tp805
sVG6126000
p806
(V\u4EA4\u6613\u4FDD\u8BC1\u91D1\u7684\u51CF\u5C11(\u51CF:\u589E\u52A0)
p807
I3
I1
tp808
sVH6105300
p809
(V\u5176\u4E2D:\u5B58\u8D27\u8DCC\u4EF7\u51C6\u5907
p810
I3
I0
tp811
sVH2000000
p812
(V\u6295\u8D44\u6D3B\u52A8\u4EA7\u751F\u7684\u73B0\u91D1\u6D41\u91CF\u51C0\u989D
p813
I3
I0
tp814
sVG6140000
p815
(V\u5E94\u4ED8\u4EE3\u7406\u8BC1\u5238\u6B3E\u7684\u589E\u52A0(\u51CF:\u51CF\u5C11)
p816
I3
I1
tp817
sVD1101000
p818
(V\u8425\u4E1A\u6536\u5165 
p819
I2
I1
tp820
sVD1114000
p821
(V\u8BC1\u5238\u53D1\u884C\u5DEE\u4EF7\u6536\u5165 
p822
I2
I1
tp823
sVG6118000
p824
(V\u5404\u79CD\u8BC1\u5238\u8D1F\u503A\u7684\u589E\u52A0(\u51CF:\u51CF\u5C11)
p825
I3
I1
tp826
sVA1100000
p827
(V\u6D41\u52A8\u8D44\u4EA7\u5408\u8BA1
p828
I1
I1
tp829
sVD2301000
p830
(V\u53EF\u4F9B\u80A1\u4E1C\u5206\u914D\u5229\u6DA6 
p831
I2
I1
tp832
sVA1245002
p833
(V\u51CF:\u5728\u5EFA\u5DE5\u7A0B\u51CF\u503C\u51C6\u5907
p834
I1
I1
tp835
sVA1101200
p836
(V\u5176\u4E2D:\u94F6\u884C\u5B58\u6B3E 
p837
I1
I1
tp838
sVE1102000
p839
(V\u51CF:\u4E3B\u8425\u4E1A\u52A1\u6210\u672C
p840
I2
I0
tp841
sVA1190000
p842
(V\u5176\u5B83\u6D41\u52A8\u8D44\u4EA7
p843
I1
I1
tp844
sVA1320000
p845
(V\u9012\u5EF6\u8D44\u4EA7
p846
I1
I1
tp847
sVA2231000
p848
(V\u5E94\u4ED8\u8F6C\u79DF\u8D41\u79DF\u91D1
p849
I1
I1
tp850
sVG2106000
p851
(V\u7ECF\u8425\u6027\u503A\u5238\u6295\u8D44\u7684\u51CF\u5C11(\u51CF:\u589E\u52A0)
p852
I3
I1
tp853
sVE1111000
p854
(V\u9500\u552E\u8D39\u7528
p855
I2
I0
tp856
sVG2120000
p857
(V\u5176\u4ED6\u5E94\u4ED8\u6682\u6536\u6B3E\u51CF\u5C11\u6D41\u51FA\u7684\u73B0\u91D1
p858
I3
I1
tp859
sVH6205000
p860
(V\u503A\u52A1\u8F6C\u4E3A\u8D44\u672C
p861
I3
I0
tp862
sVH2101000
p863
(V\u6536\u56DE\u6295\u8D44\u6240\u6536\u5230\u7684\u73B0\u91D1
p864
I3
I0
tp865
sVB2251000
p866
(V\u957F\u671F\u9012\u5EF6\u635F\u76CA
p867
I1
I0
tp868
sVE2205000
p869
(V\u63D0\u53D6\u804C\u5DE5\u5956\u798F\u57FA\u91D1
p870
I2
I0
tp871
sVG1141000
p872
(V\u9500\u552E\u5546\u54C1\u3001\u63D0\u4F9B\u52B3\u52A1\u6536\u5230\u7684\u73B0\u91D1
p873
I3
I1
tp874
sVG1238300
p875
(V\u5176\u4E2D:\u652F\u4ED8\u7684\u9664\u589E\u503C\u7A0E\u3001\u6240\u5F97\u7A0E\u4EE5\u5916\u7684\u5176\u4ED6\u7A0E\u8D39
p876
I3
I1
tp877
sVH1100000
p878
(V\u7ECF\u8425\u6D3B\u52A8\u4EA7\u751F\u7684\u73B0\u91D1\u6D41\u5165\u5C0F\u8BA1
p879
I3
I0
tp880
sVA1163001
p881
(V\u77ED\u671F\u6295\u8D44\u51C0\u503C
p882
I1
I1
tp883
sVG1145000
p884
(V\u6536\u5230\u7684\u5404\u9879\u7A0E\u8D39
p885
I3
I1
tp886
sVB2154000
p887
(V\u5185\u90E8\u5E94\u4ED8\u6B3E
p888
I1
I0
tp889
sVD1211000
p890
(V\u7BA1\u7406\u8D39\u7528
p891
I2
I1
tp892
sVH1200000
p893
(V\u7ECF\u8425\u6D3B\u52A8\u4EA7\u751F\u7684\u73B0\u91D1\u6D41\u51FA\u5C0F\u8BA1
p894
I3
I0
tp895
sVA2142000
p896
(V\u4EE3\u4E70\u5356\u8BC1\u5238\u6B3E
p897
I1
I1
tp898
sVB2173000
p899
(V\u5F85\u8F6C\u5E93\u5B58\u5546\u54C1\u5DEE\u4EF7
p900
I1
I0
tp901
sVG6301100
p902
(V\u5176\u4E2D:\u73B0\u91D1\u7B49\u4EF7\u7269\u7684\u671F\u672B\u4F59\u989D
p903
I3
I1
tp904
sVH3103000
p905
(V\u501F\u6B3E\u6240\u6536\u5230\u7684\u73B0\u91D1
p906
I3
I0
tp907
sVB1156000
p908
(V\u5E94\u6536\u8865\u8D34\u6B3E
p909
I1
I0
tp910
sVA2100000
p911
(V\u6D41\u52A8\u8D1F\u503A\u5408\u8BA1
p912
I1
I1
tp913
sVB2141000
p914
(V\u4EE3\u9500\u5546\u54C1\u6B3E
p915
I1
I0
tp916
sVG6110000
p917
(V\u5904\u7F6E\u56FA\u5B9A\u8D44\u4EA7\u3001\u65E0\u5F62\u8D44\u4EA7\u548C\u5176\u4ED6\u957F\u671F\u8D44\u4EA7\u7684\u635F\u5931
p918
I3
I1
tp919
sVE2214000
p920
(V\u5229\u6DA6\u5F52\u8FD8\u6295\u8D44
p921
I2
I0
tp922
sVG2116000
p923
(V\u5B58\u6B3E\u7684\u589E\u52A0(\u51CF:\u51CF\u5C11)
p924
I3
I1
tp925
sVB2131000
p926
(V\u9884\u6536\u8D26\u6B3E
p927
I1
I0
tp928
sVA1101100
p929
(V\u5176\u4E2D:\u73B0\u91D1
p930
I1
I1
tp931
sVA1165000
p932
(V\u5185\u90E8\u5F80\u6765
p933
I1
I1
tp934
sVE1304000
p935
(V\u8865\u8D34\u6536\u5165
p936
I2
I0
tp937
sVB1221001
p938
(V\u5176\u4E2D:\u5408\u5E76\u4EF7\u5DEE
p939
I1
I0
tp940
sVB1111302
p941
(V\u51CF:\u57FA\u91D1\u6295\u8D44\u8DCC\u4EF7\u51C6\u5907
p942
I1
I0
tp943
sVD1501000
p944
(V\u5229\u6DA6\u603B\u989D 
p945
I2
I1
tp946
sVG6131000
p947
(V\u4EE3\u5151\u4ED8\u8BC1\u5238\u7684\u51CF\u5C11(\u51CF:\u589E\u52A0)
p948
I3
I1
tp949
sVG3205000
p950
(V\u878D\u8D44\u79DF\u8D41\u6240\u652F\u4ED8\u7684\u73B0\u91D1
p951
I3
I1
tp952
sVA1202000
p953
(V\u903E\u671F\u8D37\u6B3E
p954
I1
I1
tp955
sVG1202000
p956
(V\u8425\u4E1A\u8D39\u7528\u652F\u4ED8\u7684\u73B0\u91D1
p957
I3
I1
tp958
sVG1120000
p959
(V\u540C\u4E1A\u5F80\u6765\u5229\u606F\u6536\u5165
p960
I3
I1
tp961
sVG1215000
p962
(V\u5229\u606F\u652F\u51FA
p963
I3
I1
tp964
sVG1115000
p965
(V\u6536\u56DE\u62C6\u51FA\u8D44\u91D1\u6240\u6536\u5230\u7684\u73B0\u91D1
p966
I3
I1
tp967
sVA1000002
p968
(V\u51CF:\u8D44\u4EA7\u51CF\u503C\u635F\u5931
p969
I1
I1
tp970
sVA1000000
p971
(V\u8D44\u4EA7\u603B\u8BA1
p972
I1
I1
tp973
sVG1238400
p974
(V\u5176\u4E2D:\u652F\u4ED8\u7684\u8425\u4E1A\u7A0E\u91D1\u53CA\u9644\u52A0
p975
I3
I1
tp976
sVB2191000
p977
(V\u5F85\u5904\u7406\u56FA\u5B9A\u8D44\u4EA7\u6536\u76CA
p978
I1
I0
tp979
sVA2114000
p980
(V\u4FDD\u8BC1\u91D1\u5B58\u6B3E
p981
I1
I1
tp982
sVB1151000
p983
(V\u9884\u4ED8\u8D26\u6B3E
p984
I1
I0
tp985
sVH6301000
p986
(V\u73B0\u91D1\u53CA\u73B0\u91D1\u7B49\u4EF7\u7269\u671F\u672B\u4F59\u989D
p987
I3
I0
tp988
sVG1103000
p989
(V\u540C\u4E1A\u5B58\u653E\u548C\u7CFB\u7EDF\u5185\u5B58\u653E\u6B3E\u9879\u5438\u6536\u4E0E\u652F\u4ED8\u51C0\u989D
p990
I3
I1
tp991
sVG3102000
p992
(V\u53D1\u884C\u503A\u5238\u6536\u5230\u7684\u73B0\u91D1
p993
I3
I1
tp994
sVA1171002
p995
(V\u51CF:\u59D4\u6258\u8D37\u6B3E\u53CA\u59D4\u6258\u6295\u8D44\u51CF\u503C\u51C6\u5907 
p996
I1
I1
tp997
sVA2156000
p998
(V\u5E94\u4ED8\u798F\u5229\u8D39
p999
I1
I1
tp1000
sVE2108000
p1001
(V\u5E74\u521D\u672A\u5206\u914D\u5229\u6DA6\u8C03\u6574
p1002
I2
I0
tp1003
sVA2173000
p1004
(V\u9012\u5EF6\u6536\u76CA
p1005
I1
I1
tp1006
sVG6207000
p1007
(V\u63A5\u53D7\u6350\u732E\u975E\u73B0\u91D1\u8D44\u4EA7
p1008
I3
I1
tp1009
sVA1123000
p1010
(V\u5B58\u653E\u540C\u4E1A\u6B3E\u9879
p1011
I1
I1
tp1012
sVB1101000
p1013
(V\u8D27\u5E01\u8D44\u91D1
p1014
I1
I0
tp1015
sVA1181002
p1016
(V\u51CF:\u5B58\u8D27\u8DCC\u4EF7\u51C6\u5907
p1017
I1
I1
tp1018
sVB2171000
p1019
(V\u5E94\u4EA4\u7A0E\u91D1
p1020
I1
I0
tp1021
sVG1125000
p1022
(V\u6C47\u5151\u51C0\u6536\u76CA\u6536\u5230\u7684\u73B0\u91D1
p1023
I3
I1
tp1024
sVG2000000
p1025
(V\u6295\u8D44\u6D3B\u52A8\u4EA7\u751F\u7684\u73B0\u91D1\u6D41\u91CF\u51C0\u989D
p1026
I3
I1
tp1027
sVH6116000
p1028
(V\u5B58\u8D27\u7684\u51CF\u5C11(\u51CF:\u589E\u52A0)
p1029
I3
I0
tp1030
sVD1213000
p1031
(V\u4E1A\u52A1\u53CA\u7BA1\u7406\u8D39 
p1032
I2
I1
tp1033
sVG6104000
p1034
(V\u8BA1\u63D0\u7684\u8D44\u4EA7\u51CF\u503C\u51C6\u5907
p1035
I3
I1
tp1036
sVG1139000
p1037
(V\u624B\u7EED\u8D39\u6536\u5165\u6536\u5230\u7684\u73B0\u91D1
p1038
I3
I1
tp1039
sVB1417002
p1040
(V\u51CF:\u623F\u5C4B\u4F7F\u7528\u6743\u51CF\u503C\u51C6\u5907
p1041
I1
I0
tp1042
sVD2400000
p1043
(V\u672A\u5206\u914D\u5229\u6DA6 
p1044
I2
I1
tp1045
sVE2101000
p1046
(V\u51CF:\u8D44\u672C\u516C\u79EF\u5F25\u8865\u4E8F\u635F
p1047
I2
I0
tp1048
sVE2114000
p1049
(V\u52A0:\u76C8\u4F59\u516C\u79EF\u8F6C\u5165
p1050
I2
I0
tp1051
sVG1117000
p1052
(V\u91D1\u878D\u4F01\u4E1A\u5F80\u6765\u6536\u5165\u6536\u5230\u7684\u73B0\u91D1
p1053
I3
I1
tp1054
sVG6204000
p1055
(V\u4EE5\u975E\u73B0\u91D1\u8D44\u4EA7\u507F\u8FD8\u503A\u52A1
p1056
I3
I1
tp1057
sVD1205000
p1058
(V\u8054\u884C\u5F80\u6765\u5229\u606F\u652F\u51FA
p1059
I2
I1
tp1060
sVA2122000
p1061
(V\u540C\u4E1A\u5B58\u653E\u6B3E\u9879
p1062
I1
I1
tp1063
sVG2202000
p1064
(V\u5904\u7F6E\u56FA\u5B9A\u8D44\u4EA7\u3001\u65E0\u5F62\u8D44\u4EA7\u548C\u5176\u4ED6\u957F\u671F\u8D44\u4EA7\u6240\u652F\u4ED8\u7684\u73B0\u91D1
p1065
I3
I1
tp1066
sVD1202000
p1067
(V\u5229\u606F\u652F\u51FA 
p1068
I2
I1
tp1069
sVG1242000
p1070
(V\u7ECF\u8425\u79DF\u8D41\u6240\u652F\u4ED8\u7684\u73B0\u91D1
p1071
I3
I1
tp1072
sVB2200000
p1073
(V\u957F\u671F\u8D1F\u503A\u5408\u8BA1
p1074
I1
I0
tp1075
sVG3201000
p1076
(V\u507F\u8FD8\u503A\u52A1\u6240\u652F\u4ED8\u7684\u73B0\u91D1
p1077
I3
I1
tp1078
sVG1204000
p1079
(V\u81EA\u8425\u8BC1\u5238\u652F\u4ED8\u7684\u73B0\u91D1\u51C0\u989D
p1080
I3
I1
tp1081
sVA1203000
p1082
(V\u5446\u6EDE\u8D37\u6B3E/\u975E\u5E94\u8BA1\u8D37\u6B3E
p1083
I1
I1
tp1084
sVE3105000
p1085
(V\u503A\u52A1\u91CD\u7EC4\u635F\u5931
p1086
I2
I0
tp1087
sVG6130000
p1088
(V\u4EE3\u53D1\u884C\u8BC1\u5238\u7684\u51CF\u5C11(\u51CF:\u589E\u52A0)
p1089
I3
I1
tp1090
sVA1173200
p1091
(V\u4EE3\u53D1\u884C\u8BC1\u5238
p1092
I1
I1
tp1093
sVG2103000
p1094
(V\u62C6\u653E\u540C\u4E1A\u53CA\u91D1\u878D\u6027\u516C\u53F8\u7684\u51CF\u5C11(\u51CF:\u589E\u52A0)
p1095
I3
I1
tp1096
sVA2201000
p1097
(V\u957F\u671F\u5B58\u6B3E
p1098
I1
I1
tp1099
sVH1102000
p1100
(V\u6536\u53D6\u7684\u79DF\u91D1
p1101
I3
I0
tp1102
sVH6105600
p1103
(V\u5176\u4E2D:\u65E0\u5F62\u8D44\u4EA7\u51CF\u503C\u51C6\u5907
p1104
I3
I0
tp1105
sVG6136000
p1106
(V\u53D7\u6258\u8D44\u91D1\u7684\u589E\u52A0(\u51CF:\u51CF\u5C11)
p1107
I3
I1
tp1108
sVA2132000
p1109
(V\u540C\u4E1A\u62C6\u5165
p1110
I1
I1
tp1111
sVB2193000
p1112
(V\u804C\u5DE5\u5956\u52B1\u53CA\u798F\u5229\u57FA\u91D1
p1113
I1
I0
tp1114
sVD1410000
p1115
(V\u51CF\uFF1A\u8425\u4E1A\u5916\u652F\u51FA
p1116
I2
I1
tp1117
sVE2211000
p1118
(V\u63D0\u53D6\u8463\u4E8B\u4F1A\u57FA\u91D1
p1119
I2
I0
tp1120
sVG6104300
p1121
(V\u8BA1\u63D0\u7684\u81EA\u8425\u8BC1\u5238\u635F\u5931\u51C6\u5907\u3001\u8D37\u6B3E\u5446\u5E10\u51C6\u5907\u548C\u957F\u671F\u6295\u8D44\u51CF\u503C\u51C6\u5907
p1122
I3
I1
tp1123
sVB2111000
p1124
(V\u5E94\u4ED8\u7968\u636E
p1125
I1
I0
tp1126
sVG6142000
p1127
(V\u5E94\u4ED8\u5DE5\u8D44\u7684\u589E\u52A0(\u51CF:\u51CF\u5C11)
p1128
I3
I1
tp1129
sVE1303000
p1130
(V\u671F\u8D27\u635F\u76CA
p1131
I2
I0
tp1132
sVG3100000
p1133
(V\u7B79\u8D44\u6D3B\u52A8\u4EA7\u751F\u7684\u73B0\u91D1\u6D41\u5165\u5C0F\u8BA1
p1134
I3
I1
tp1135
sVG6138000
p1136
(V\u4EE3\u53D1\u884C\u8BC1\u5238\u6B3E\u7684\u589E\u52A0(\u51CF:\u51CF\u5C11)
p1137
I3
I1
tp1138
sVE2104000
p1139
(V\u52A0:\u4F4F\u623F\u5468\u8F6C\u91D1\u8F6C\u5165
p1140
I2
I0
tp1141
sVB1310000
p1142
(V\u56FA\u5B9A\u8D44\u4EA7\u539F\u4EF7
p1143
I1
I0
tp1144
sVB2182000
p1145
(V\u5E94\u4ED8\u77ED\u671F\u503A\u5238
p1146
I1
I0
tp1147
sVG1110000
p1148
(V\u5438\u6536\u7684\u5B9A\u671F\u5B58\u6B3E
p1149
I3
I1
tp1150
sVB1170002
p1151
(V\u51CF:\u5B58\u8D27\u8DCC\u4EF7\u51C6\u5907
p1152
I1
I0
tp1153
sVB1170001
p1154
(V\u5B58\u8D27\u51C0\u989D
p1155
I1
I0
tp1156
sVB1170000
p1157
(V\u5B58\u8D27
p1158
I1
I0
tp1159
sVA3212000
p1160
(V\u8D44\u672C\u516C\u79EF
p1161
I1
I1
tp1162
sVA1175000
p1163
(V\u4EE3\u8F6C\u53D1\u884C\u8D39\u7528
p1164
I1
I1
tp1165
sVH3101100
p1166
(V\u5176\u4E2D:\u5B50\u516C\u53F8\u5438\u6536\u5C11\u6570\u80A1\u4E1C\u6743\u76CA\u6027\u6295\u8D44\u6536\u5230\u7684\u73B0\u91D1
p1167
I3
I0
tp1168
sVH1208000
p1169
(V\u652F\u4ED8\u7684\u5176\u5B83\u4E0E\u7ECF\u8425\u6D3B\u52A8\u6709\u5173\u7684\u73B0\u91D1
p1170
I3
I0
tp1171
sVH6114000
p1172
(V\u6295\u8D44\u635F\u5931(\u51CF:\u6536\u76CA)
p1173
I3
I0
tp1174
sVG6124000
p1175
(V\u5356\u51FA\u56DE\u8D2D\u8BC1\u5238\u6B3E\u7684\u589E\u52A0(\u51CF:\u51CF\u5C11)
p1176
I3
I1
tp1177
sVD2205000
p1178
(V\u63D0\u53D6\u5916\u6C47\u8D44\u672C\u51C6\u5907\u91D1
p1179
I2
I1
tp1180
sVB4000000
p1181
(V\u8D1F\u503A\u4E0E\u80A1\u4E1C\u6743\u76CA\u603B\u8BA1
p1182
I1
I0
tp1183
sVB1200001
p1184
(V\u957F\u671F\u6295\u8D44\u51C0\u989D
p1185
I1
I0
tp1186
sVB1200000
p1187
(V\u957F\u671F\u6295\u8D44\u5408\u8BA1
p1188
I1
I0
tp1189
sVB1484000
p1190
(V\u4E34\u65F6\u8BBE\u65BD\u51C0\u503C
p1191
I1
I0
tp1192
sVD1111000
p1193
(V\u8BC1\u5238\u53D1\u884C\u6536\u5165 
p1194
I2
I1
tp1195
sVG1210000
p1196
(V\u59D4\u6258\u5B58\u8D37\u6B3E\u4E1A\u52A1\u73B0\u91D1\u6536\u652F\u51C0\u989D
p1197
I3
I1
tp1198
sVD1105000
p1199
(V\u8054\u884C\u5F80\u6765\u5229\u606F\u6536\u5165
p1200
I2
I1
tp1201
sVE2301000
p1202
(V\u53EF\u4F9B\u80A1\u4E1C\u5206\u914D\u7684\u5229\u6DA6
p1203
I2
I0
tp1204
sVG1245000
p1205
(V\u5176\u4ED6\u8425\u4E1A\u652F\u51FA\u652F\u4ED8\u7684\u73B0\u91D1
p1206
I3
I1
tp1207
sVH1108000
p1208
(V\u6536\u56DE\u8D37\u6B3E
p1209
I3
I0
tp1210
sVB1121001
p1211
(V\u77ED\u671F\u653E\u6B3E\u51C0\u989D
p1212
I1
I0
tp1213
sVB1121002
p1214
(V\u51CF:\u8D37\u6B3E\u5446\u8D26\u51C6\u5907
p1215
I1
I0
tp1216
sVH6109000
p1217
(V\u5F85\u644A\u8D39\u7528\u51CF\u5C11(\u51CF:\u589E\u52A0)
p1218
I3
I0
tp1219
sVD2101100
p1220
(V\u6263\u9664\u975E\u7ECF\u5E38\u6027\u635F\u76CA\u7684\u51C0\u5229\u6DA6
p1221
I2
I1
tp1222
sVA1106200
p1223
(V\u5176\u4E2D:\u53D7\u6258\u7BA1\u7406\u5BA2\u6237\u5907\u4ED8\u91D1
p1224
I1
I1
tp1225
sVA1150002
p1226
(V\u51CF:\u5E94\u6536\u6B3E\u9879\u574F\u5E10\u51C6\u5907
p1227
I1
I1
tp1228
sVA1290000
p1229
(V\u5176\u4ED6\u957F\u671F\u8D44\u4EA7
p1230
I1
I1
tp1231
sVG1147000
p1232
(V\u6536\u5230\u7684\u5176\u4ED6\u4E0E\u7ECF\u8425\u6D3B\u52A8\u6709\u5173\u7684\u73B0\u91D1
p1233
I3
I1
tp1234
sVH1202000
p1235
(V\u7ECF\u8425\u79DF\u8D41\u6240\u652F\u4ED8\u7684\u73B0\u91D1
p1236
I3
I0
tp1237
sVA2155000
p1238
(V\u5E94\u4ED8\u5DE5\u8D44
p1239
I1
I1
tp1240
sVG6121000
p1241
(V\u77ED\u671F\u53CA\u59D4\u6258\u5B58\u6B3E\u7684\u589E\u52A0(\u51CF:\u51CF\u5C11)
p1242
I3
I1
tp1243
sVG6152000
p1244
(V\u5176\u4ED6
p1245
I3
I1
tp1246
sVG1233000
p1247
(V\u624B\u7EED\u8D39\u652F\u51FA\u652F\u4ED8\u7684\u73B0\u91D1
p1248
I3
I1
tp1249
sVA2241000
p1250
(V\u53D1\u884C\u957F\u671F\u503A\u5238
p1251
I1
I1
tp1252
sVD1120000
p1253
(V\u5176\u4ED6\u8425\u4E1A\u6536\u5165 
p1254
I2
I1
tp1255
sVE2213000
p1256
(V\u8F6C\u589E\u8D44\u672C\u516C\u79EF
p1257
I2
I0
tp1258
sVH3105000
p1259
(V\u5438\u6536\u6295\u8D44\u6240\u6536\u5230\u7684\u73B0\u91D1
p1260
I3
I0
tp1261
sVA2127000
p1262
(V\u5E94\u89E3\u6C47\u6B3E
p1263
I1
I1
tp1264
sVE1114000
p1265
(V\u8D22\u52A1\u8D39\u7528
p1266
I2
I0
tp1267
sVB1203002
p1268
(V\u51CF:\u957F\u671F\u503A\u6743\u6295\u8D44\u51CF\u503C\u51C6\u5907
p1269
I1
I0
tp1270
sVA1237000
p1271
(V\u5176\u4E2D:\u5408\u5E76\u4EF7\u5DEE
p1272
I1
I1
tp1273
sVG1131000
p1274
(V\u8BC1\u5238\u53D1\u884C\u5DEE\u4EF7\u6536\u5165\u6536\u5230\u7684\u73B0\u91D1
p1275
I3
I1
tp1276
sVD2101200
p1277
(V\u52A0:\u975E\u6B63\u5E38\u7ECF\u8425\u9879\u76EE\u6536\u76CA\u8C03\u6574 
p1278
I2
I1
tp1279
sVG1226000
p1280
(V\u62C6\u653E\u5176\u4ED6\u91D1\u878D\u4F01\u4E1A\u8D44\u91D1\u51C0\u989D
p1281
I3
I1
tp1282
sVG2131000
p1283
(V\u51FA\u552E\u9644\u5C5E\u516C\u53F8\u53CA\u8054\u8425\u516C\u53F8\u6240\u6536\u5230\u7684\u73B0\u91D1
p1284
I3
I1
tp1285
sVE2400000
p1286
(V\u672A\u5206\u914D\u5229\u6DA6
p1287
I2
I0
tp1288
sVH6103000
p1289
(V\u51CF:\u672A\u786E\u8BA4\u7684\u6295\u8D44\u635F\u5931
p1290
I3
I0
tp1291
sVB1487000
p1292
(V\u957F\u671F\u8D37\u6B3E
p1293
I1
I0
tp1294
sVE2202000
p1295
(V\u53EF\u4F9B\u5206\u914D\u5229\u6DA6
p1296
I2
I0
tp1297
sVG6133000
p1298
(V\u5176\u4ED6\u7ECF\u8425\u6027\u5E94\u6536\u9879\u76EE\u7684\u51CF\u5C11(\u51CF:\u589E\u52A0)
p1299
I3
I1
tp1300
sVH6121000
p1301
(V\u65E0\u5F62\u8D44\u4EA7\u53CA\u5176\u4ED6\u8D44\u4EA7\u644A\u9500
p1302
I3
I0
tp1303
sVG6109000
p1304
(V\u9884\u63D0\u8D39\u7528\u7684\u589E\u52A0(\u51CF:\u51CF\u5C11)
p1305
I3
I1
tp1306
sVH1110000
p1307
(V\u5411\u5176\u4ED6\u91D1\u878D\u4F01\u4E1A\u62C6\u5165\u7684\u8D44\u91D1
p1308
I3
I0
tp1309
sVH2202000
p1310
(V\u6743\u76CA\u6027\u6295\u8D44\u6240\u652F\u4ED8\u7684\u73B0\u91D1
p1311
I3
I0
tp1312
sVB1100000
p1313
(V\u6D41\u52A8\u8D44\u4EA7\u5408\u8BA1
p1314
I1
I0
tp1315
sVE1501000
p1316
(V\u51C0\u5229\u6DA6
p1317
I2
I0
tp1318
sVD1201000
p1319
(V\u8425\u4E1A\u652F\u51FA 
p1320
I2
I1
tp1321
sVH3203000
p1322
(V\u5206\u914D\u80A1\u5229\u6216\u5229\u6DA6\u6240\u652F\u4ED8\u7684\u73B0\u91D1
p1323
I3
I0
tp1324
sVE1410000
p1325
(V\u6240\u5F97\u7A0E\u8FD4\u8FD8
p1326
I2
I0
tp1327
sVG1209000
p1328
(V\u652F\u4ED8\u7684\u6D3B\u671F\u5B58\u6B3E\u672C\u91D1
p1329
I3
I1
tp1330
sVB1481000
p1331
(V\u5176\u5B83\u957F\u671F\u8D44\u4EA7
p1332
I1
I0
tp1333
sVG1123000
p1334
(V\u7ECF\u8425\u6027\u503A\u5238\u6295\u8D44\u51CF\u5C11\u6536\u56DE\u7684\u73B0\u91D1
p1335
I3
I1
tp1336
sVB3200000
p1337
(V\u80A1\u4E1C\u6743\u76CA\u5408\u8BA1
p1338
I1
I0
tp1339
sVA1246000
p1340
(V\u56FA\u5B9A\u8D44\u4EA7\u6E05\u7406
p1341
I1
I1
tp1342
sVG2100000
p1343
(V\u6295\u8D44\u6D3B\u52A8\u4EA7\u751F\u7684\u73B0\u91D1\u6D41\u5165\u5C0F\u8BA1
p1344
I3
I1
tp1345
sVB1290001
p1346
(V\u5176\u5B83\u957F\u671F\u6295\u8D44\u51C0\u989D
p1347
I1
I0
tp1348
sVB1290002
p1349
(V\u51CF:\u5176\u4ED6\u957F\u671F\u6295\u8D44\u51CF\u503C\u51C6\u5907
p1350
I1
I0
tp1351
sVB1416002
p1352
(V\u51CF:\u5546\u6807\u6743\u51CF\u503C\u51C6\u5907
p1353
I1
I0
tp1354
sVG6202000
p1355
(V\u4EE5\u5B58\u8D27\u507F\u8FD8\u503A\u52A1
p1356
I3
I1
tp1357
sVG6145000
p1358
(V\u5E94\u4ED8\u503A\u5238\u5229\u606F\u652F\u51FA
p1359
I3
I1
tp1360
sVB2101000
p1361
(V\u77ED\u671F\u501F\u6B3E
p1362
I1
I0
tp1363
sVB3251000
p1364
(V\u672A\u5206\u914D\u5229\u6DA6
p1365
I1
I0
tp1366
sVA2171000
p1367
(V\u9884\u63D0\u8D39\u7528
p1368
I1
I1
tp1369
sVA1163302
p1370
(V\u51CF:\u57FA\u91D1\u6295\u8D44\u8DCC\u4EF7\u51C6\u5907
p1371
I1
I1
tp1372
sVA1163202
p1373
(V\u51CF:\u503A\u5238\u6295\u8D44\u8DCC\u4EF7\u51C6\u5907
p1374
I1
I1
tp1375
sVG6106000
p1376
(V\u4EA4\u6613\u5E2D\u4F4D\u8D39\u644A\u9500
p1377
I3
I1
tp1378
sVA2153000
p1379
(V\u5E94\u4ED8\u5E10\u6B3E
p1380
I1
I1
tp1381
sVB1415002
p1382
(V\u51CF:\u975E\u4E13\u5229\u6280\u672F\u51CF\u503C\u51C6\u5907
p1383
I1
I0
tp1384
sVB2181000
p1385
(V\u5176\u5B83\u5E94\u4ED8\u6B3E
p1386
I1
I0
tp1387
sVD2303000
p1388
(V\u63D0\u53D6\u4EFB\u610F\u76C8\u4F59\u516C\u79EF\u91D1 
p1389
I2
I1
tp1390
sVA3213100
p1391
(V\u5176\u4E2D:\u516C\u76CA\u91D1
p1392
I1
I1
tp1393
sVA2900000
p1394
(V\u5176\u4ED6\u8D1F\u503A
p1395
I1
I1
tp1396
sVH3206000
p1397
(V\u51CF\u5C11\u6CE8\u518C\u8D44\u672C\u6240\u652F\u4ED8\u7684\u73B0\u91D1
p1398
I3
I0
tp1399
sVH3100000
p1400
(V\u7B79\u8D44\u6D3B\u52A8\u4EA7\u751F\u7684\u73B0\u91D1\u6D41\u5165\u5C0F\u8BA1
p1401
I3
I0
tp1402
sVG2114000
p1403
(V\u540C\u4E1A\u53CA\u91D1\u878D\u6027\u516C\u53F8\u62C6\u5165\u7684\u589E\u52A0(\u51CF:\u51CF\u5C11)
p1404
I3
I1
tp1405
sVG3201100
p1406
(V\u5176\u4E2D:\u8D4E\u56DE\u503A\u5238\u6240\u652F\u4ED8\u7684\u73B0\u91D1
p1407
I3
I1
tp1408
sVH1104000
p1409
(V\u6536\u5230\u7684\u9664\u589E\u503C\u7A0E\u4EE5\u5916\u7684\u5176\u5B83\u7A0E\u8D39\u8FD4\u8FD8
p1410
I3
I0
tp1411
sVH6111000
p1412
(V\u5904\u7F6E\u56FA\u5B9A\u8D44\u4EA7\u3001\u65E0\u5F62\u8D44\u4EA7\u548C\u5176\u4ED6\u957F\u671F\u8D44\u4EA7\u7684\u635F\u5931
p1413
I3
I0
tp1414
sVA2212000
p1415
(V\u5B58\u5165\u957F\u671F\u4FDD\u8BC1\u91D1
p1416
I1
I1
tp1417
sVE2212000
p1418
(V\u63D0\u53D6\u5916\u6C47\u8D44\u672C\u51C6\u5907\u91D1
p1419
I2
I0
tp1420
sVG6116000
p1421
(V\u8D37\u6B3E\u53CA\u59D4\u6258\u8D37\u6B3E\u7684\u51CF\u5C11(\u51CF:\u589E\u52A0)
p1422
I3
I1
tp1423
sVE2105000
p1424
(V\u51CF\u5C11\u6CE8\u518C\u8D44\u672C\u51CF\u5C11\u7684\u672A\u5206\u914D\u5229\u6DA6
p1425
I2
I0
tp1426
sVG3204100
p1427
(V\u5176\u4E2D:\u652F\u4ED8\u7684\u4E2D\u957F\u671F\u503A\u5238\u5229\u606F
p1428
I3
I1
tp1429
sVB1140001
p1430
(V\u5E94\u6536\u6B3E\u9879\u51C0\u989D
p1431
I1
I0
tp1432
sVE2102000
p1433
(V\u516C\u53F8\u6210\u7ACB\u524D\u5229\u6DA6\u8F6C\u51FA
p1434
I2
I0
tp1435
sVA2147000
p1436
(V\u5356\u51FA\u56DE\u8D2D\u8BC1\u5238\u6B3E
p1437
I1
I1
tp1438
sVD1506000
p1439
(V\u51CF\uFF1A\u8D2D\u5E76\u5229\u6DA6
p1440
I2
I1
tp1441
sVA2203000
p1442
(V\u957F\u671F\u50A8\u84C4\u5B58\u6B3E
p1443
I1
I1
tp1444
sVG1240000
p1445
(V\u5356\u51FA\u56DE\u8D2D\u8BC1\u5238\u5230\u671F\u56DE\u8D2D\u652F\u4ED8\u7684\u73B0\u91D1
p1446
I3
I1
tp1447
sVE1101100
p1448
(V\u51CF:\u6298\u6263\u4E0E\u6298\u8BA9
p1449
I2
I0
tp1450
sVG3203000
p1451
(V\u5206\u914D\u80A1\u5229\u6216\u5229\u6DA6\u6240\u652F\u4ED8\u7684\u73B0\u91D1
p1452
I3
I1
tp1453
sVA2202000
p1454
(V\u957F\u671F\u4FE1\u6258\u5B58\u6B3E
p1455
I1
I1
tp1456
sVG2118000
p1457
(V\u59D4\u6258\u5B58\u6B3E\u7684\u589E\u52A0(\u51CF:\u51CF\u5C11)
p1458
I3
I1
tp1459
sVB3213000
p1460
(V\u76C8\u4F59\u516C\u79EF
p1461
I1
I0
tp1462
sVA1145000
p1463
(V\u5E94\u6536\u5229\u606F
p1464
I1
I1
tp1465
sVD1207000
p1466
(V\u81EA\u8425\u8BC1\u5238\u8DCC\u4EF7\u635F\u5931 
p1467
I2
I1
tp1468
sVA2159000
p1469
(V\u5E94\u4ED8\u5176\u4ED6\u6B3E
p1470
I1
I1
tp1471
sVA3201000
p1472
(V\u80A1\u672C
p1473
I1
I1
tp1474
sVD2106000
p1475
(V\u4EE5\u524D\u5E74\u5EA6\u635F\u76CA\u8C03\u6574 
p1476
I2
I1
tp1477
sVB2121000
p1478
(V\u5E94\u4ED8\u8D26\u6B3E
p1479
I1
I0
tp1480
sVD1412000
p1481
(V\u52A0\uFF1A\u4EE5\u524D\u5E74\u5EA6\u635F\u76CA\u8C03\u6574
p1482
I2
I1
tp1483
sVH6105500
p1484
(V\u5176\u4E2D:\u56FA\u5B9A\u8D44\u4EA7\u51CF\u503C\u51C6\u5907
p1485
I3
I0
tp1486
sVG2126000
p1487
(V\u878D\u8D44\u79DF\u8D41\u6240\u6536\u56DE\u7684\u79DF\u91D1
p1488
I3
I1
tp1489
sVG6122000
p1490
(V\u77ED\u671F\u8D37\u6B3E\u3001\u77ED\u671F\u6295\u8D44\u7684\u51CF\u5C11(\u51CF:\u589E\u52A0
p1491
I3
I1
tp1492
sVG1223000
p1493
(V\u5B58\u653E\u7CFB\u7EDF\u5185\u6B3E\u9879\u51C0\u989D
p1494
I3
I1
tp1495
sVD1402000
p1496
(V\u52A0\uFF1A\u5176\u4ED6\u4E1A\u52A1\u5229\u6DA6
p1497
I2
I1
tp1498
sVE3104000
p1499
(V\u4F1A\u8BA1\u4F30\u8BA1\u53D8\u66F4\u589E\u52A0\u6216\u51CF\u5C11\u5229\u6DA6\u603B\u989D
p1500
I2
I0
tp1501
sVG6208000
p1502
(V\u4EE5\u6295\u8D44\u8F6C\u8D37\u6B3E
p1503
I3
I1
tp1504
sVE3103000
p1505
(V\u4F1A\u8BA1\u653F\u7B56\u53D8\u66F4\u589E\u52A0\u6216\u51CF\u5C11\u5229\u6DA6\u603B\u989D
p1506
I2
I0
tp1507
sVA1101210
p1508
(V\u5176\u4E2D:\u7ECF\u7EAA\u4E1A\u52A1\u5BA2\u6237\u8D44\u91D1\u5B58\u6B3E
p1509
I1
I1
tp1510
sVA1162000
p1511
(V\u8D34\u73B0
p1512
I1
I1
tp1513
sVG6104400
p1514
(V\u8BA1\u63D0\u7684\u5B58\u8D27\u8DCC\u4EF7\u51C6\u5907
p1515
I3
I1
tp1516
sVA1181000
p1517
(V\u5B58\u8D27
p1518
I1
I1
tp1519
sVA1181001
p1520
(V\u5B58\u8D27\u51C0\u989D
p1521
I1
I1
tp1522
sVD2207000
p1523
(V\u51CF\uFF1A\u5176\u4ED6
p1524
I2
I1
tp1525
sVA1243002
p1526
(V\u51CF:\u56FA\u5B9A\u8D44\u4EA7\u51CF\u503C\u51C6\u5907
p1527
I1
I1
tp1528
sVH6302100
p1529
(V\u5176\u4E2D:\u8D27\u5E01\u8D44\u91D1\u7684\u671F\u521D\u4F59\u989D
p1530
I3
I0
tp1531
sVA1133000
p1532
(V\u62C6\u653E\u540C\u4E1A
p1533
I1
I1
tp1534
sVB1203001
p1535
(V\u957F\u671F\u503A\u6743\u6295\u8D44\u51C0\u989D
p1536
I1
I0
tp1537
sVG1212000
p1538
(V\u652F\u4ED8\u7684\u957F\u671F\u5B58\u6B3E\u672C\u91D1
p1539
I3
I1
tp1540
sVA1241000
p1541
(V\u56FA\u5B9A\u8D44\u4EA7\u539F\u503C
p1542
I1
I1
tp1543
sVE2201000
p1544
(V\u8D27\u5E01\u6298\u7B97\u5DEE\u989D
p1545
I2
I0
tp1546
sVB1132000
p1547
(V\u5E94\u6536\u80A1\u5229
p1548
I1
I0
tp1549
sVG6107100
p1550
(V\u65E0\u5F62\u8D44\u4EA7\u644A\u9500
p1551
I3
I1
tp1552
sVG6150000
p1553
(V\u9012\u5EF6\u7A0E\u9879\u8D37\u9879(\u51CF:\u501F\u9879)
p1554
I3
I1
tp1555
sVD1113000
p1556
(V\u8BC1\u5238\u9500\u552E\u5DEE\u4EF7\u6536\u5165 
p1557
I2
I1
tp1558
sVG2130000
p1559
(V\u5904\u7F6E\u56FA\u5B9A\u8D44\u4EA7\u3001\u65E0\u5F62\u8D44\u4EA7\u548C\u5176\u4ED6\u957F\u671F\u8D44\u4EA7\u800C\u6536\u56DE\u7684\u73B0\u91D1
p1560
I3
I1
tp1561
sVA1187000
p1562
(V\u4E00\u5E74\u5185\u5230\u671F\u7684\u957F\u671F\u6295\u8D44
p1563
I1
I1
tp1564
sVA2310000
p1565
(V\u9012\u5EF6\u7A0E\u9879\u8D37\u9879
p1566
I1
I1
tp1567
sVD2307000
p1568
(V\u51CF\uFF1A\u5176\u4ED6
p1569
I2
I1
tp1570
sVB1450000
p1571
(V\u9012\u5EF6\u8D44\u4EA7
p1572
I1
I0
tp1573
sVD1103000
p1574
(V\u91D1\u878D\u4F01\u4E1A\u5F80\u6765\u6536\u5165 
p1575
I2
I1
tp1576
sVD1502000
p1577
(V\u51CF\uFF1A\u6240\u5F97\u7A0E
p1578
I2
I1
tp1579
sVA1101220
p1580
(V\u5176\u4E2D:\u53D7\u6258\u7BA1\u7406\u5BA2\u6237\u8D44\u91D1\u5B58\u6B3E
p1581
I1
I1
tp1582
sVA2145000
p1583
(V\u53D7\u6258\u8D44\u91D1 
p1584
I1
I1
tp1585
sVH6105200
p1586
(V\u5176\u4E2D:\u77ED\u671F\u6295\u8D44\u8DCC\u4EF7\u51C6\u5907
p1587
I3
I0
tp1588
sVD1408000
p1589
(V\u8425\u4E1A\u5916\u6536\u5165 
p1590
I2
I1
tp1591
sVE1116000
p1592
(V\u8FDB\u8D27\u8D39\u7528
p1593
I2
I0
tp1594
sVG1140000
p1595
(V\u79DF\u8D41\u6536\u5165
p1596
I3
I1
tp1597
sVB3201100
p1598
(V\u5176\u4E2D:\u5DF2\u5F52\u8FD8\u6295\u8D44
p1599
I1
I0
tp1600
sVH6105800
p1601
(V\u5176\u4E2D:\u59D4\u6258\u8D37\u6B3E\u51CF\u503C\u51C6\u5907
p1602
I3
I0
tp1603
sVH3202000
p1604
(V\u53D1\u751F\u7B79\u8D44\u8D39\u7528\u6240\u652F\u4ED8\u7684\u73B0\u91D1
p1605
I3
I0
tp1606
sVH1106000
p1607
(V\u6536\u5230\u7684\u5176\u5B83\u4E0E\u7ECF\u8425\u6D3B\u52A8\u6709\u5173\u7684\u73B0\u91D1
p1608
I3
I0
tp1609
sVH6202000
p1610
(V\u4EE5\u6295\u8D44\u507F\u8FD8\u503A\u52A1
p1611
I3
I0
tp1612
sVG6125000
p1613
(V\u7ECF\u8425\u6027\u5E94\u6536\u9879\u76EE\u7684\u51CF\u5C11(\u51CF:\u589E\u52A0)
p1614
I3
I1
tp1615
sVH2104000
p1616
(V\u5904\u7F6E\u56FA\u5B9A\u8D44\u4EA7\u3001\u65E0\u5F62\u8D44\u4EA7\u548C\u5176\u5B83\u957F\u671F\u8D44\u4EA7\u800C\u6536\u56DE\u7684\u73B0\u91D1\u51C0\u989D
p1617
I3
I0
tp1618
sVH6106000
p1619
(V\u56FA\u5B9A\u8D44\u4EA7\u6298\u65E7
p1620
I3
I0
tp1621
sVG1219000
p1622
(V\u5B58\u653E\u4E2D\u592E\u94F6\u884C\u6B3E\u9879
p1623
I3
I1
tp1624
sVA1211100
p1625
(V\u51CF:\u672A\u6536\u79DF\u8D41\u6536\u76CA
p1626
I1
I1
tp1627
sVD2103000
p1628
(V\u51CF\uFF1A\u51CF\u5C11\u6CE8\u518C\u8D44\u672C\u51CF\u5C11\u7684\u672A\u5206\u914D\u5229\u6DA6
p1629
I2
I1
tp1630
sVH1103000
p1631
(V\u6536\u5230\u7684\u589E\u503C\u7A0E\u9500\u9879\u7A0E\u6B3E\u548C\u9000\u56DE\u7684\u589E\u503C\u7A0E\u6B3E
p1632
I3
I0
tp1633
sVD1116000
p1634
(V\u4E70\u5165\u8FD4\u552E\u8BC1\u5238\u6536\u5165
p1635
I2
I1
tp1636
sVE2208000
p1637
(V\u63D0\u53D6\u518D\u5C31\u4E1A\u57FA\u91D1
p1638
I2
I0
tp1639
sVD1212000
p1640
(V\u8425\u4E1A\u8D39\u7528 
p1641
I2
I1
tp1642
sVE1308000
p1643
(V\u51CF:\u5206\u7ED9\u5916\u5355\u4F4D\u5229\u6DA6
p1644
I2
I0
tp1645
sVG1238000
p1646
(V\u652F\u4ED8\u7684\u5404\u9879\u7A0E\u8D39
p1647
I3
I1
tp1648
sVG1221000
p1649
(V\u5B58\u653E\u540C\u4E1A\u4E0E\u7CFB\u7EDF\u5185\u5B58\u6B3E\u6B3E\u9879\u51C0\u989D
p1650
I3
I1
tp1651
sVG1134000
p1652
(V\u5356\u51FA\u56DE\u8D2D\u8BC1\u5238\u6536\u5230\u7684\u73B0\u91D1
p1653
I3
I1
tp1654
sVG1116000
p1655
(V\u540C\u4E1A\u62C6\u5165\u548C\u540C\u4E1A\u62C6\u51FA\u51C0\u989D
p1656
I3
I1
tp1657
sVG3200000
p1658
(V\u7B79\u8D44\u6D3B\u52A8\u4EA7\u751F\u7684\u73B0\u91D1\u6D41\u51FA\u5C0F\u8BA1
p1659
I3
I1
tp1660
sVB1142002
p1661
(V\u51CF:\u5176\u5B83\u5E94\u6536\u6B3E\u574F\u8D26\u51C6\u5907
p1662
I1
I0
tp1663
sVG2102000
p1664
(V\u5B58\u653E\u540C\u4E1A\u6B3E\u9879\u7684\u51CF\u5C11(\u51CF:\u589E\u52A0)
p1665
I3
I1
tp1666
sVB1162000
p1667
(V\u5185\u90E8\u5F80\u6765
p1668
I1
I0
tp1669
sVA1238000
p1670
(V\u5176\u4E2D:\u80A1\u6743\u6295\u8D44\u5DEE\u989D
p1671
I1
I1
tp1672
sVA3231000
p1673
(V\u4E00\u822C\u98CE\u9669\u51C6\u5907/\u4FE1\u6258\u8D54\u507F\u51C6\u5907\u91D1
p1674
I1
I1
tp1675
sVH6123000
p1676
(V\u8D2D\u5E76\u5229\u6DA6
p1677
I3
I0
tp1678
sVA1176000
p1679
(V\u4E70\u5165\u8FD4\u552E\u8BC1\u5238
p1680
I1
I1
tp1681
sVG1234000
p1682
(V\u7ECF\u8425\u6027\u503A\u5238\u6295\u8D44\u652F\u4ED8\u7684\u73B0\u91D1
p1683
I3
I1
tp1684
sVG6107200
p1685
(V\u957F\u671F\u5F85\u644A\u8D39\u7528\u7684\u644A\u9500
p1686
I3
I1
tp1687
sVG1121000
p1688
(V\u4E2D\u95F4\u4E1A\u52A1\u6536\u5165\u6536\u5230\u7684\u73B0\u91D1
p1689
I3
I1
tp1690
sVH2104500
p1691
(V\u5408\u5E76\u62A5\u8868\u8303\u56F4\u53D8\u5316\u6240\u589E\u52A0\u7684\u73B0\u91D1
p1692
I3
I0
tp1693
sVG6300000
p1694
(V\u73B0\u91D1\u53CA\u73B0\u91D1\u7B49\u4EF7\u7269\u51C0\u589E\u52A0\u989D
p1695
I3
I1
tp1696
sVH1209000
p1697
(V\u652F\u4ED8\u5176\u4ED6\u91D1\u878D\u4F01\u4E1A\u62C6\u501F\u8D44\u91D1
p1698
I3
I0
tp1699
sVB1111202
p1700
(V\u51CF:\u503A\u5238\u6295\u8D44\u8DCC\u4EF7\u51C6\u5907
p1701
I1
I0
tp1702
sVB1185000
p1703
(V\u5F85\u644A\u8D39\u7528
p1704
I1
I0
tp1705
sVG6119000
p1706
(V\u81EA\u8425\u8BC1\u5238\u7684\u51CF\u5C11(\u51CF:\u589E\u52A0)
p1707
I3
I1
tp1708
sVB2192000
p1709
(V\u9884\u8BA1\u8D1F\u503A
p1710
I1
I0
tp1711
sVB3212100
p1712
(V\u5176\u4E2D:\u8D44\u672C\u6C47\u5DEE\u8C03\u6574
p1713
I1
I0
tp1714
sVH6105100
p1715
(V\u5176\u4E2D:\u574F\u5E10\u51C6\u5907\u6216\u8F6C\u9500\u7684\u574F\u8D26
p1716
I3
I0
tp1717
sVD2305000
p1718
(V\u8F6C\u4F5C\u80A1\u672C\u7684\u666E\u901A\u80A1\u80A1\u5229 
p1719
I2
I1
tp1720
sVD1217000
p1721
(V\u5176\u4ED6\u8425\u4E1A\u652F\u51FA 
p1722
I2
I1
tp1723
sVD1106000
p1724
(V\u624B\u7EED\u8D39\u6536\u5165 
p1725
I2
I1
tp1726
sVH3208000
p1727
(V\u5206\u914D\u80A1\u5229\u3001\u5229\u6DA6\u6216\u507F\u4ED8\u5229\u606F\u6240\u652F\u4ED8\u7684\u73B0\u91D1
p1728
I3
I0
tp1729
sVE1408000
p1730
(V\u52A0:\u8D22\u653F\u8FD4\u8FD8
p1731
I2
I0
tp1732
sVG6149000
p1733
(V\u6295\u8D44\u3001\u7B79\u8D44\u6D3B\u52A8\u4EA7\u751F\u7684\u6C47\u5151\u635F\u76CA
p1734
I3
I1
tp1735
sVG2121000
p1736
(V\u7ECF\u8425\u6027\u8D1F\u503A\u7684\u589E\u52A0(\u51CF\u5C11)\u5C0F\u8BA1
p1737
I3
I1
tp1738
sVB1161100
p1739
(V\u5176\u4E2D:\u5E94\u6536\u5173\u8054\u516C\u53F8\u6B3E
p1740
I1
I0
tp1741
sVG1128000
p1742
(V\u81EA\u8425\u8BC1\u5238\u589E\u51CF\u51C0\u989D
p1743
I3
I1
tp1744
sVB1161102
p1745
(V\u51CF:\u5E94\u6536\u5173\u8054\u516C\u53F8\u6B3E\u574F\u8D26\u51C6\u5907
p1746
I1
I0
tp1747
sVA1310001
p1748
(V\u65E0\u5F62\u8D44\u4EA7\u51C0\u989D 
p1749
I1
I1
tp1750
sVG6101000
p1751
(V\u51C0\u5229\u6DA6
p1752
I3
I1
tp1753
sVA1152002
p1754
(V\u51CF:\u5176\u5B83\u5E94\u6536\u6B3E\u574F\u5E10\u51C6\u5907
p1755
I1
I1
tp1756
sVG1145200
p1757
(V\u5176\u4E2D:\u6536\u5230\u7684\u9664\u589E\u503C\u7A0E\u4EE5\u5916\u7684\u7A0E\u8D39\u8FD4\u8FD8
p1758
I3
I1
tp1759
sVA1152001
p1760
(V\u5176\u5B83\u5E94\u6536\u6B3E\u51C0\u989D 
p1761
I1
I1
tp1762
sVB3241000
p1763
(V\u51CF:\u672A\u786E\u8BA4\u7684\u6295\u8D44\u635F\u5931
p1764
I1
I0
tp1765
sVG1142000
p1766
(V\u6536\u5230\u7684\u79DF\u91D1
p1767
I3
I1
tp1768
sVG1200000
p1769
(V\u7ECF\u8425\u6D3B\u52A8\u4EA7\u751F\u7684\u73B0\u91D1\u6D41\u51FA\u5C0F\u8BA1
p1770
I3
I1
tp1771
sVA1230002
p1772
(V\u51CF:\u957F\u671F\u6295\u8D44\u51CF\u503C\u51C6\u5907
p1773
I1
I1
tp1774
sVA1230001
p1775
(V\u957F\u671F\u6295\u8D44\u51C0\u989D
p1776
I1
I1
tp1777
sVA1230000
p1778
(V\u957F\u671F\u6295\u8D44\u5408\u8BA1
p1779
I1
I1
tp1780
sVH1201000
p1781
(V\u8D2D\u4E70\u5546\u54C1\u3001\u63A5\u53D7\u52B3\u52A1\u652F\u4ED8\u7684\u73B0\u91D1
p1782
I3
I0
tp1783
sVB2290000
p1784
(V\u5176\u5B83\u957F\u671F\u8D1F\u503A
p1785
I1
I0
tp1786
sVG1246000
p1787
(V\u652F\u4ED8\u7684\u5176\u4ED6\u4E0E\u7ECF\u8425\u6D3B\u52A8\u6709\u5173\u7684\u73B0\u91D1
p1788
I3
I1
tp1789
sVH3204000
p1790
(V\u507F\u4ED8\u5229\u606F\u6240\u652F\u4ED8\u7684\u73B0\u91D1
p1791
I3
I0
tp1792
sVD1204000
p1793
(V\u7CFB\u7EDF\u5185\u5F80\u6765\u5229\u606F\u652F\u51FA
p1794
I2
I1
tp1795
sVA3281000
p1796
(V\u5916\u5E01\u62A5\u8868\u6298\u7B97\u5DEE\u989D/\u8D44\u672C\u6C47\u5DEE\u8C03\u6574
p1797
I1
I1
tp1798
sVE1109000
p1799
(V\u5176\u5B83\u6536\u5165
p1800
I2
I0
tp1801
sVH6113000
p1802
(V\u8D22\u52A1\u8D39\u7528
p1803
I3
I0
tp1804
sVD2204000
p1805
(V\u804C\u5DE5\u5956\u798F\u57FA\u91D1
p1806
I2
I1
tp1807
sVG6104900
p1808
(V\u8BA1\u63D0\u7684\u5176\u4ED6\u8D44\u4EA7\u51CF\u503C\u51C6\u5907
p1809
I3
I1
tp1810
sVH3102000
p1811
(V\u53D1\u884C\u503A\u5238\u6240\u6536\u5230\u7684\u73B0\u91D1
p1812
I3
I0
tp1813
sVG2112000
p1814
(V\u5411\u592E\u884C\u501F\u6B3E\u7684\u589E\u52A0(\u51CF:\u51CF\u5C11)
p1815
I3
I1
tp1816
sVE1405000
p1817
(V\u51CF:\u5C11\u6570\u80A1\u4E1C\u635F\u76CA
p1818
I2
I0
tp1819
sVD2104000
p1820
(V\u52A0\uFF1A\u76C8\u4F59\u516C\u79EF\u8F6C\u5165
p1821
I2
I1
tp1822
sVG2205000
p1823
(V\u652F\u4ED8\u7684\u5176\u4ED6\u4E0E\u6295\u8D44\u6D3B\u52A8\u6709\u5173\u7684\u73B0\u91D1
p1824
I3
I1
tp1825
sVD2203000
p1826
(V\u63D0\u53D6\u6CD5\u5B9A\u516C\u76CA\u91D1 
p1827
I2
I1
tp1828
sVG6104330
p1829
(V\u5176\u4E2D:\u8BA1\u63D0\u7684\u957F\u671F\u6295\u8D44\u51CF\u503C\u51C6\u5907
p1830
I3
I1
tp1831
sVD1414000
p1832
(V\u8BA1\u63D0\u8D44\u4EA7\u635F\u5931\u51C6\u5907\u524D\u5229\u6DA6\u603B\u989D 
p1833
I2
I1
tp1834
sVG6206000
p1835
(V\u878D\u8D44\u79DF\u8D41\u56FA\u5B9A\u8D44\u4EA7
p1836
I3
I1
tp1837
sVG6113000
p1838
(V\u6295\u8D44\u635F\u5931(\u51CF:\u6536\u76CA)
p1839
I3
I1
tp1840
sVA1142000
p1841
(V\u62B5\u62BC\u8D37\u6B3E
p1842
I1
I1
tp1843
sVG6135000
p1844
(V\u8D28\u62BC\u501F\u6B3E\u7684\u589E\u52A0(\u51CF:\u51CF\u5C11)
p1845
I3
I1
tp1846
sVG6104500
p1847
(V\u8BA1\u63D0\u7684\u62B5\u503A\u8D44\u4EA7\u51CF\u503C\u51C6\u5907
p1848
I3
I1
tp1849
sVH6101000
p1850
(V\u51C0\u5229\u6DA6
p1851
I3
I0
tp1852
sVB1111102
p1853
(V\u51CF:\u80A1\u7968\u6295\u8D44\u8DCC\u4EF7\u51C6\u5907
p1854
I1
I0
tp1855
sVE2305000
p1856
(V\u8F6C\u4F5C\u8D44\u672C\u6216\u80A1\u672C\u7684\u666E\u901A\u80A1\u80A1\u5229
p1857
I2
I0
tp1858
sVA2115000
p1859
(V\u8D22\u653F\u6027\u5B58\u6B3E
p1860
I1
I1
tp1861
sVA1122100
p1862
(V\u5B58\u653E\u7CFB\u7EDF\u5185\u6B3E\u9879
p1863
I1
I1
tp1864
sVH6118000
p1865
(V\u7ECF\u8425\u6027\u5E94\u4ED8\u9879\u76EE\u7684\u589E\u52A0(\u51CF:\u51CF\u5C11)
p1866
I3
I0
tp1867
sVG6120000
p1868
(V\u62C6\u51FA\u8D44\u91D1\u7684\u51CF\u5C11(\u51CF:\u589E\u52A0)
p1869
I3
I1
tp1870
sVA1171001
p1871
(V\u59D4\u6258\u8D37\u6B3E\u53CA\u59D4\u6258\u6295\u8D44\u51C0\u989D 
p1872
I1
I1
tp1873
sVA1171000
p1874
(V\u59D4\u6258\u8D37\u6B3E\u53CA\u59D4\u6258\u6295\u8D44
p1875
I1
I1
tp1876
sVH2101500
p1877
(V\u8D2D\u4E70\u548C\u5904\u7F6E\u5B50\u516C\u53F8\u53CA\u5176\u4ED6\u8425\u4E1A\u5355\u4F4D\u6240\u6536\u5230\u7684\u73B0\u91D1
p1878
I3
I0
tp1879
sVE1103000
p1880
(V\u4E3B\u8425\u4E1A\u52A1\u7A0E\u91D1\u53CA\u9644\u52A0
p1881
I2
I0
tp1882
sVA1321000
p1883
(V\u5F00\u529E\u8D39
p1884
I1
I1
tp1885
sVB1400000
p1886
(V\u65E0\u5F62\u8D44\u4EA7\u53CA\u5176\u5B83\u8D44\u4EA7\u5408\u8BA1
p1887
I1
I0
tp1888
sVE2302000
p1889
(V\u51CF:\u5E94\u4ED8\u4F18\u5148\u80A1\u80A1\u5229
p1890
I2
I0
tp1891
sVA2165000
p1892
(V\u5E94\u4EA4\u7A0E\u91D1
p1893
I1
I1
tp1894
sVH2204000
p1895
(V\u652F\u4ED8\u7684\u5176\u5B83\u4E0E\u6295\u8D44\u6D3B\u52A8\u6709\u5173\u7684\u73B0\u91D1
p1896
I3
I0
tp1897
sVA1243000
p1898
(V\u56FA\u5B9A\u8D44\u4EA7\u51C0\u503C
p1899
I1
I1
tp1900
sVA1224000
p1901
(V\u51CF:\u7ECF\u8425\u79DF\u8D41\u8D44\u4EA7\u6298\u65E7
p1902
I1
I1
tp1903
sVG2206000
p1904
(V\u6295\u8D44\u6D3B\u52A8\u4EA7\u751F\u7684\u73B0\u91D1\u6D41\u51FA\u5C0F\u8BA1
p1905
I3
I1
tp1906
sVA1173300
p1907
(V\u4EE3\u5151\u4ED8\u503A\u5238
p1908
I1
I1
tp1909
sVH6302200
p1910
(V\u5176\u4E2D:\u73B0\u91D1\u7B49\u4EF7\u7269\u7684\u671F\u521D\u4F59\u989D
p1911
I3
I0
tp1912
sVG6147000
p1913
(V\u62C6\u5165\u8D44\u91D1\u7684\u589E\u52A0(\u51CF:\u51CF\u5C11)
p1914
I3
I1
tp1915
sVH6301200
p1916
(V\u5176\u4E2D:\u73B0\u91D1\u7B49\u4EF7\u7269\u7684\u671F\u672B\u4F59\u989D
p1917
I3
I0
tp1918
sVG2123000
p1919
(V\u8425\u4E1A\u6D3B\u52A8\u4EA7\u751F\u7684\u73B0\u91D1\u6D41\u91CF\u51C0\u989D
p1920
I3
I1
tp1921
sVD1115000
p1922
(V\u59D4\u6258\u6295\u8D44\u7BA1\u7406\u53D7\u76CA
p1923
I2
I1
tp1924
sVA2132100
p1925
(V\u5176\u4E2D:\u91D1\u878D\u516C\u53F8\u62C6\u5165
p1926
I1
I1
tp1927
sVA1101000
p1928
(V\u73B0\u91D1\u53CA\u94F6\u884C\u5B58\u6B3E
p1929
I1
I1
tp1930
sVG6129000
p1931
(V\u4EE3\u4E70\u5356\u8BC1\u5238\u7684\u51CF\u5C11(\u51CF:\u589E\u52A0)
p1932
I3
I1
tp1933
sVA1204000
p1934
(V\u5446\u5E10\u8D37\u6B3E
p1935
I1
I1
tp1936
sVB1231000
p1937
(V\u62E8\u4ED8\u6240\u5C5E\u8D44\u91D1\u6295\u8D44
p1938
I1
I0
tp1939
sVA1204002
p1940
(V\u51CF:\u8D37\u6B3E\u5446\u5E10\u51C6\u5907\u91D1
p1941
I1
I1
tp1942
sVB1203000
p1943
(V\u957F\u671F\u503A\u6743\u6295\u8D44
p1944
I1
I0
tp1945
sVB1190000
p1946
(V\u5176\u5B83\u6D41\u52A8\u8D44\u4EA7
p1947
I1
I0
tp1948
sVG6104200
p1949
(V\u8BA1\u63D0\u5B58\u653E\u62C6\u653E\u540C\u4E1A\u53CA\u91D1\u878D\u6027\u516C\u53F8\u5446\u8D26\u51C6\u5907
p1950
I3
I1
tp1951
sVG6103000
p1952
(V\u51CF:\u672A\u786E\u8BA4\u7684\u6295\u8D44\u635F\u5931
p1953
I3
I1
tp1954
sVG2105000
p1955
(V\u8D34\u73B0\u7684\u51CF\u5C11(\u51CF:\u589E\u52A0)
p1956
I3
I1
tp1957
sVG1138000
p1958
(V\u6536\u5230\u7684\u5BA2\u6237\u4FDD\u8BC1\u91D1\u73B0\u91D1\u51C0\u989D
p1959
I3
I1
tp1960
sVG5000000
p1961
(V\u73B0\u91D1\u53CA\u73B0\u91D1\u7B49\u4EF7\u7269\u51C0\u589E\u52A0\u989D
p1962
I3
I1
tp1963
sVG6205000
p1964
(V\u4EE5\u56FA\u5B9A\u8D44\u4EA7\u8FDB\u884C\u957F\u671F\u6295\u8D44
p1965
I3
I1
tp1966
sVH6204000
p1967
(V\u4EE5\u5B58\u8D27\u507F\u8FD8\u503A\u52A1
p1968
I3
I0
tp1969
sVG2132000
p1970
(V\u6536\u5230\u7684\u5176\u4ED6\u4E0E\u6295\u8D44\u6D3B\u52A8\u6709\u5173\u7684\u73B0\u91D1
p1971
I3
I1
tp1972
sVA2221000
p1973
(V\u4F4F\u623F\u5468\u8F6C\u91D1
p1974
I1
I1
tp1975
sVB3100000
p1976
(V\u5C11\u6570\u80A1\u4E1C\u6743\u76CA
p1977
I1
I0
tp1978
sVG6211000
p1979
(V\u4E0D\u6D89\u53CA\u73B0\u91D1\u6D41\u91CF\u7684\u6295\u8D44\u548C\u878D\u8D44\u6D3B\u52A8\u91D1\u989D
p1980
I3
I1
tp1981
sVH1206000
p1982
(V\u652F\u4ED8\u7684\u9664\u589E\u503C\u7A0E\u3001\u6240\u5F97\u7A0E\u4EE5\u5916\u7684\u5176\u5B83\u7A0E\u8D39
p1983
I3
I0
tp1984
sVD2202000
p1985
(V\u51CF:\u63D0\u53D6\u6CD5\u5B9A\u76C8\u4F59\u516C\u79EF\u91D1
p1986
I2
I1
tp1987
sVG2117000
p1988
(V\u4FDD\u8BC1\u91D1\u7684\u589E\u52A0(\u51CF:\u51CF\u5C11)
p1989
I3
I1
tp1990
sVB1170100
p1991
(V\u5176\u4E2D:\u5DE5\u7A0B\u65BD\u5DE5
p1992
I1
I0
tp1993
sVA1201200
p1994
(V\u957F\u671F\u8D37\u6B3E 
p1995
I1
I1
tp1996
sVA1185000
p1997
(V\u5F85\u644A\u8D39\u7528
p1998
I1
I1
tp1999
sVB1200002
p2000
(V\u51CF:\u957F\u671F\u6295\u8D44\u51CF\u503C\u51C6\u5907
p2001
I1
I0
tp2002
sVH1101000
p2003
(V\u9500\u552E\u5546\u54C1\u3001\u63D0\u4F9B\u52B3\u52A1\u6536\u5230\u7684\u73B0\u91D1
p2004
I3
I0
tp2005
sVH6105900
p2006
(V\u5176\u4E2D:\u5176\u4ED6\u51CF\u503C\u51C6\u5907
p2007
I3
I0
tp2008
sVE1305000
p2009
(V\u8425\u4E1A\u5916\u6536\u5165
p2010
I2
I0
tp2011
sVE1305001
p2012
(V\u8425\u4E1A\u5916\u6536\u652F\u51C0\u989D 
p2013
I2
I0
tp2014
sVH2201000
p2015
(V\u8D2D\u5EFA\u56FA\u5B9A\u8D44\u4EA7\u3001\u65E0\u5F62\u8D44\u4EA7\u548C\u5176\u5B83\u957F\u671F\u8D44\u4EA7\u6240\u652F\u4ED8\u7684\u73B0\u91D1
p2016
I3
I0
tp2017
sVG6203000
p2018
(V\u4EE5\u6295\u8D44\u507F\u8FD8\u503A\u52A1
p2019
I3
I1
tp2020
sVG1109000
p2021
(V\u5438\u6536\u7684\u6D3B\u671F\u5B58\u6B3E\u4EE5\u5916\u7684\u5176\u4ED6\u5B58\u6B3E
p2022
I3
I1
tp2023
sVB1154000
p2024
(V\u5E94\u6536\u51FA\u53E3\u9000\u7A0E
p2025
I1
I0
tp2026
sVG1205000
p2027
(V\u4EE3\u4E70\u5356\u8BC1\u5238\u652F\u4ED8\u7684\u73B0\u91D1\u51C0\u989D
p2028
I3
I1
tp2029
sVA2103000
p2030
(V\u7968\u636E\u878D\u8D44
p2031
I1
I1
tp2032
sVB2310000
p2033
(V\u9012\u5EF6\u7A0E\u6B3E\u8D37\u9879
p2034
I1
I0
tp2035
sVB1142000
p2036
(V\u5176\u5B83\u5E94\u6536\u6B3E
p2037
I1
I0
tp2038
sVB1142001
p2039
(V\u5176\u4ED6\u5E94\u6536\u6B3E\u51C0\u989D
p2040
I1
I0
tp2041
sVB3211000
p2042
(V\u4E0A\u7EA7\u62E8\u5165\u8D44\u91D1
p2043
I1
I0
tp2044
sVG1114000
p2045
(V\u5411\u5176\u4ED6\u91D1\u878D\u4F01\u4E1A\u62C6\u5165\u7684\u8D44\u91D1\u51C0\u989D
p2046
I3
I1
tp2047
sVE2306000
p2048
(V\u5F25\u8865\u7D2F\u8BA1\u4E8F\u635F
p2049
I2
I0
tp2050
sVB1315002
p2051
(V\u51CF:\u8FD0\u8F93\u8BBE\u5907\u51CF\u503C\u51C6\u5907
p2052
I1
I0
tp2053
sVA1243001
p2054
(V\u56FA\u5B9A\u8D44\u4EA7\u51C0\u989D
p2055
I1
I1
tp2056
sVA2182000
p2057
(V\u4E00\u5E74\u5185\u5230\u671F\u7684\u957F\u671F\u8D1F\u503A
p2058
I1
I1
tp2059
sVB1152002
p2060
(V\u51CF:\u9884\u4ED8\u5E10\u6B3E\u574F\u8D26\u51C6\u5907
p2061
I1
I0
tp2062
sVA1251000
p2063
(V\u4EA4\u6613\u5E2D\u4F4D\u8D39
p2064
I1
I1
tp2065
sVA2190000
p2066
(V\u5176\u4ED6\u6D41\u52A8\u8D1F\u503A
p2067
I1
I1
tp2068
sVB1121100
p2069
(V\u77ED\u671F\u8D37\u6B3E
p2070
I1
I0
tp2071
sVA4000000
p2072
(V\u8D1F\u503A\u53CA\u80A1\u4E1C\u6743\u76CA\u603B\u8BA1
p2073
I1
I1
tp2074
sVH5000000
p2075
(V\u73B0\u91D1\u53CA\u73B0\u91D1\u7B49\u4EF7\u7269\u51C0\u589E\u52A0\u989D(\u76F4\u63A5\u6CD5)
p2076
I3
I0
tp2077
sVD2101000
p2078
(V\u51C0\u5229\u6DA6 
p2079
I2
I1
tp2080
sVA1173000
p2081
(V\u4EE3\u7406\u8BC1\u5238
p2082
I1
I1
tp2083
sVA2112000
p2084
(V\u77ED\u671F\u50A8\u84C4\u5B58\u6B3E
p2085
I1
I1
tp2086
sVA2209000
p2087
(V\u5176\u5B83\u957F\u671F\u5B58\u6B3E
p2088
I1
I1
tp2089
sVA1134000
p2090
(V\u62C6\u653E\u91D1\u878D\u6027\u516C\u53F8
p2091
I1
I1
tp2092
sVH3207000
p2093
(V\u652F\u4ED8\u7684\u5176\u5B83\u4E0E\u7B79\u8D44\u6D3B\u52A8\u6709\u5173\u7684\u73B0\u91D1
p2094
I3
I0
tp2095
sVG6143000
p2096
(V\u5E94\u4ED8\u798F\u5229\u8D39\u7684\u589E\u52A0(\u51CF:\u51CF\u5C11)
p2097
I3
I1
tp2098
sVB1187000
p2099
(V\u4E00\u5E74\u5185\u5230\u671F\u7684\u957F\u671F\u6295\u8D44
p2100
I1
I0
tp2101
sVG1136000
p2102
(V\u53D7\u6258\u8D44\u4EA7\u7BA1\u7406\u6536\u5230\u7684\u73B0\u91D1\u51C0\u989D
p2103
I3
I1
tp2104
sVE2309000
p2105
(V\u4F4F\u623F\u5468\u8F6C\u91D1\u7ED3\u8F6C
p2106
I2
I0
tp2107
sVB1174002
p2108
(V\u51CF:\u539F\u6750\u6599\u8DCC\u4EF7\u51C6\u5907
p2109
I1
I0
tp2110
sVB1174000
p2111
(V\u539F\u6750\u6599
p2112
I1
I0
tp2113
sVG3103000
p2114
(V\u6536\u5230\u7684\u4E0E\u5176\u4ED6\u4E0E\u7B79\u8D44\u6D3B\u52A8\u6709\u5173\u7684\u73B0\u91D1
p2115
I3
I1
tp2116
sVH3101000
p2117
(V\u5438\u6536\u6743\u76CA\u6027\u6295\u8D44\u6240\u6536\u5230\u7684\u73B0\u91D1
p2118
I3
I0
tp2119
sVG1126000
p2120
(V\u59D4\u6258\u5B58\u8D37\u6B3E\u4E1A\u52A1\u73B0\u91D1\u6536\u652F\u51C0\u989D//\u6536\u56DE\u7684\u59D4\u6258\u8D44\u91D1//\u4FE1\u6258\u5B58\u8D37
p2121
I3
I1
tp2122
sVA2157000
p2123
(V\u5E94\u4ED8\u5229\u606F
p2124
I1
I1
tp2125
sVB1485000
p2126
(V\u4E34\u65F6\u8BBE\u65BD\u6E05\u7406
p2127
I1
I0
tp2128
sVH6120000
p2129
(V\u589E\u503C\u7A0E\u589E\u52A0\u51C0\u989D
p2130
I3
I0
tp2131
sVG1211000
p2132
(V\u4E00\u822C\u5B58\u6B3E\u51C6\u5907\u91D1\u51C0\u989D
p2133
I3
I1
tp2134
sVA3241000
p2135
(V\u672A\u786E\u8BA4\u7684\u6295\u8D44\u635F\u5931
p2136
I1
I1
tp2137
sVG1232000
p2138
(V\u540C\u4E1A\u5F80\u6765\u5229\u606F\u652F\u51FA
p2139
I3
I1
tp2140
sVH1204000
p2141
(V\u652F\u4ED8\u7684\u589E\u503C\u7A0E\u6B3E
p2142
I3
I0
tp2143
sVG1104000
p2144
(V\u6536\u53D6\u7684\u5229\u606F
p2145
I3
I1
tp2146
sVD1208000
p2147
(V\u5356\u51FA\u56DE\u8D2D\u8BC1\u5238\u652F\u51FA 
p2148
I2
I1
tp2149
sVB1411002
p2150
(V\u51CF:\u5546\u8A89\u51CF\u503C\u51C6\u5907
p2151
I1
I0
tp2152
sVA1106000
p2153
(V\u6E05\u7B97\u5907\u4ED8\u91D1(\u7ED3\u7B97\u5907\u4ED8\u91D1)
p2154
I1
I1
tp2155
sVG1133000
p2156
(V\u4EE3\u5151\u4ED8\u503A\u5238\u6536\u5230\u7684\u73B0\u91D1\u51C0\u989D
p2157
I3
I1
tp2158
sVD1104000
p2159
(V\u7CFB\u7EDF\u5185\u5F80\u6765\u5229\u606F\u6536\u5165
p2160
I2
I1
tp2161
sVG1100000
p2162
(V\u7ECF\u8425\u6D3B\u52A8\u4EA7\u751F\u7684\u73B0\u91D1\u6D41\u5165\u5C0F\u8BA1
p2163
I3
I1
tp2164
sVB1161000
p2165
(V\u5185\u90E8\u5E94\u6536\u6B3E
p2166
I1
I0
tp2167
sVG2110000
p2168
(V\u5176\u4ED6\u5E94\u6536\u6682\u4ED8\u6B3E\u51CF\u5C11\u6536\u56DE\u7684\u73B0\u91D1(\u51CF:\u589E\u52A0)
p2169
I3
I1
tp2170
sVG2109000
p2171
(V\u5176\u4ED6\u7ECF\u8425\u6027\u8D44\u4EA7\u7684\u51CF\u5C11(\u51CF:\u589E\u52A0)
p2172
I3
I1
tp2173
sVG1207000
p2174
(V\u4EE3\u5151\u4ED8\u8BC1\u5238\u652F\u4ED8\u7684\u73B0\u91D1\u51C0\u989D
p2175
I3
I1
tp2176
sVG2203000
p2177
(V\u6743\u76CA\u6027\u6295\u8D44\u6240\u652F\u4ED8\u7684\u73B0\u91D1
p2178
I3
I1
tp2179
sVH6122000
p2180
(V\u5F00\u529E\u8D39\u644A\u9500
p2181
I3
I0
tp2182
sVA1150001
p2183
(V\u5E94\u6536\u6B3E\u9879\u51C0\u989D
p2184
I1
I1
tp2185
sVG6137000
p2186
(V\u4EE3\u4E70\u5356\u8BC1\u5238\u6B3E\u7684\u589E\u52A0(\u51CF:\u51CF\u5C11)
p2187
I3
I1
tp2188
sVG3101100
p2189
(V\u5176\u4E2D:\u53D1\u884C\u80A1\u7968\u6536\u5230\u7684\u73B0\u91D1
p2190
I3
I1
tp2191
sVH2102000
p2192
(V\u5206\u5F97\u80A1\u5229\u6216\u5229\u6DA6\u6240\u6536\u5230\u7684\u73B0\u91D1
p2193
I3
I0
tp2194
sVB2161000
p2195
(V\u5E94\u4ED8\u80A1\u5229
p2196
I1
I0
tp2197
sVD1203000
p2198
(V\u91D1\u878D\u4F01\u4E1A\u5F80\u6765\u652F\u51FA 
p2199
I2
I1
tp2200
sVG1229000
p2201
(V\u91D1\u878D\u4F01\u4E1A\u5F80\u6765\u652F\u4ED8\u7684\u73B0\u91D1
p2202
I3
I1
tp2203
sVH3104000
p2204
(V\u6536\u5230\u7684\u5176\u5B83\u4E0E\u7B79\u8D44\u6D3B\u52A8\u6709\u5173\u7684\u73B0\u91D1
p2205
I3
I0
tp2206
sVG3207000
p2207
(V\u652F\u4ED8\u7684\u5176\u4ED6\u4E0E\u7B79\u8D44\u6D3B\u52A8\u6709\u5173\u7684\u73B0\u91D1
p2208
I3
I1
tp2209
sVE1412000
p2210
(V\u804C\u5DE5\u5956\u52B1\u53CA\u798F\u5229\u57FA\u91D1
p2211
I2
I0
tp2212
sVB1133000
p2213
(V\u5E94\u6536\u5229\u606F
p2214
I1
I0
tp2215
sVD1503000
p2216
(V\u52A0\uFF1A\u8D22\u653F\u8FD4\u8FD8
p2217
I2
I1
tp2218
sVE1202000
p2219
(V\u5176\u5B83\u4E1A\u52A1\u5229\u6DA6
p2220
I2
I0
tp2221
sVB1482000
p2222
(V\u4E34\u65F6\u8BBE\u65BD
p2223
I1
I0
tp2224
sVG6148000
p2225
(V\u77ED\u671F\u5B58\u6B3E\u3001\u4FDD\u8BC1\u91D1\u5B58\u6B3E\u3001\u59D4\u6258\u5B58\u6B3E\u7684\u589E\u52A0(\u51CF:\u51CF\u5C11)
p2226
I3
I1
tp2227
sVA3251000
p2228
(V\u672A\u5206\u914D\u5229\u6DA6
p2229
I1
I1
tp2230
sVG6111000
p2231
(V\u56FA\u5B9A\u8D44\u4EA7\u62A5\u5E9F\u635F\u5931(\u51CF:\u6536\u76CA)
p2232
I3
I1
tp2233
sVB2320000
p2234
(V\u9012\u5EF6\u5229\u606F\u6536\u5165
p2235
I1
I0
tp2236
sVB1171000
p2237
(V\u5E93\u5B58\u5546\u54C1
p2238
I1
I0
tp2239
sVB1171002
p2240
(V\u51CF:\u5E93\u5B58\u5546\u54C1\u8DCC\u4EF7\u51C6\u5907
p2241
I1
I0
tp2242
sVG1117200
p2243
(V\u5176\u4E2D:\u62C6\u5165\u91D1\u878D\u673A\u6784\u8D44\u91D1\u51C0\u989D
p2244
I3
I1
tp2245
sVH3206100
p2246
(V\u5176\u4E2D:\u5B50\u516C\u53F8\u4F9D\u6CD5\u51CF\u8D44\u652F\u4ED8\u7ED9\u5C11\u6570\u80A1\u4E1C\u7684\u73B0\u91D1
p2247
I3
I0
tp2248
sVG6132000
p2249
(V\u5F85\u8F6C\u53D1\u884C\u8D39\u7528\u7684\u51CF\u5C11(\u51CF:\u589E\u52A0)
p2250
I3
I1
tp2251
sVH1210000
p2252
(V\u53D1\u653E\u8D37\u6B3E
p2253
I3
I0
tp2254
sVH3000000
p2255
(V\u7B79\u8D44\u6D3B\u52A8\u4EA7\u751F\u7684\u73B0\u91D1\u6D41\u91CF\u51C0\u989D
p2256
I3
I0
tp2257
sVA1174000
p2258
(V\u53D7\u6258\u8D44\u4EA7
p2259
I1
I1
tp2260
sVA1201000
p2261
(V\u4E2D\u957F\u671F\u8D37\u6B3E
p2262
I1
I1
tp2263
sVB1311000
p2264
(V\u51CF:\u7D2F\u8BA1\u6298\u65E7
p2265
I1
I0
tp2266
sVG1124000
p2267
(V\u7ECF\u8425\u6027\u503A\u5238\u6295\u8D44\u6536\u76CA\u6536\u5230\u7684\u73B0\u91D1
p2268
I3
I1
tp2269
sVB2183000
p2270
(V\u4E13\u9879\u62E8\u6B3E
p2271
I1
I0
tp2272
sVG1106000
p2273
(V\u8BC1\u5238\u53CA\u79DF\u8D41\u4E1A\u52A1\u73B0\u91D1\u589E\u52A0\u51C0\u989D
p2274
I3
I1
tp2275
sVB3201000
p2276
(V\u80A1\u672C
p2277
I1
I0
tp2278
sVB3201001
p2279
(V\u80A1\u672C\u51C0\u989D
p2280
I1
I0
tp2281
sVB1361001
p2282
(V\u5728\u5EFA\u5DE5\u7A0B\u51C0\u989D
p2283
I1
I0
tp2284
sVB1361000
p2285
(V\u5728\u5EFA\u5DE5\u7A0B
p2286
I1
I0
tp2287
sVB1413002
p2288
(V\u51CF:\u4E13\u5229\u6743\u51CF\u503C\u51C6\u5907
p2289
I1
I0
tp2290
sVE1101000
p2291
(V\u4E3B\u8425\u4E1A\u52A1\u6536\u5165
p2292
I2
I0
tp2293
sVE1101001
p2294
(V\u4E3B\u8425\u4E1A\u52A1\u6536\u5165\u51C0\u989D
p2295
I2
I0
tp2296
sVD1117000
p2297
(V\u79DF\u8D41\u6536\u76CA 
p2298
I2
I1
tp2299
sVG1216000
p2300
(V\u5BF9\u5916\u53D1\u653E\u7684\u4E2D\u957F\u671F\u8D37\u6B3E
p2301
I3
I1
tp2302
sVA1245001
p2303
(V\u5728\u5EFA\u5DE5\u7A0B\u51C0\u503C
p2304
I1
I1
tp2305
sVA1245000
p2306
(V\u5728\u5EFA\u5DE5\u7A0B
p2307
I1
I1
tp2308
sVG1105000
p2309
(V\u5438\u6536\u957F\u671F\u5B58\u6B3E\u6240\u6536\u5230\u7684\u73B0\u91D1
p2310
I3
I1
tp2311
sVB3213100
p2312
(V\u5176\u4E2D:\u6CD5\u5B9A\u516C\u76CA\u91D1
p2313
I1
I0
tp2314
sVB3281000
p2315
(V\u8D27\u5E01\u6298\u7B97\u5DEE\u989D
p2316
I1
I0
tp2317
sVG6114000
p2318
(V\u6295\u8D44\u3001\u7B79\u8D44\u6D3B\u52A8\u4EA7\u751F\u7684\u6C47\u5151\u635F\u76CA
p2319
I3
I1
tp2320
sVG6141000
p2321
(V\u5E94\u4ED8\u6B3E\u9879\u7684\u589E\u52A0(\u51CF:\u51CF\u5C11)
p2322
I3
I1
tp2323
sVG1220000
p2324
(V\u540C\u4E1A\u62C6\u51FA\u4E0E\u62C6\u5165\u8D44\u91D1\u51C0\u989D
p2325
I3
I1
tp2326
sVB1201000
p2327
(V\u957F\u671F\u6295\u8D44
p2328
I1
I0
tp2329
sVG2124000
p2330
(V\u6536\u56DE\u6295\u8D44\u6240\u6536\u5230\u7684\u73B0\u91D1
p2331
I3
I1
tp2332
sVH6207000
p2333
(V\u878D\u8D44\u79DF\u8D41\u56FA\u5B9A\u8D44\u4EA7
p2334
I3
I0
tp2335
sVA1232001
p2336
(V\u957F\u671F\u503A\u5238\u6295\u8D44\u51C0\u989D 
p2337
I1
I1
tp2338
sVA1232000
p2339
(V\u957F\u671F\u503A\u6743\u6295\u8D44
p2340
I1
I1
tp2341
sVH6105400
p2342
(V\u5176\u4E2D:\u957F\u671F\u6295\u8D44\u51CF\u503C\u51C6\u5907
p2343
I3
I0
tp2344
sVA1232002
p2345
(V\u51CF:\u957F\u671F\u503A\u6743\u6295\u8D44\u51CF\u503C\u51C6\u5907
p2346
I1
I1
tp2347
sVA2152000
p2348
(V\u5E94\u4ED8\u7968\u636E
p2349
I1
I1
tp2350
sVG1244000
p2351
(V\u4EE5\u73B0\u91D1\u652F\u4ED8\u7684\u8425\u4E1A\u8D39\u7528
p2352
I3
I1
tp2353
sVB1121200
p2354
(V\u62C6\u51FA\u8D44\u91D1
p2355
I1
I0
tp2356
sVD1505000
p2357
(V\u52A0\uFF1A\u672A\u786E\u8BA4\u7684\u6295\u8D44\u635F\u5931
p2358
I2
I1
tp2359
sVG1144000
p2360
(V\u8425\u4E1A\u5916\u51C0\u6536\u5165\u6536\u5230\u7684\u73B0\u91D1
p2361
I3
I1
tp2362
sVH1203000
p2363
(V\u652F\u4ED8\u7ED9\u804C\u5DE5\u4EE5\u53CA\u4E3A\u804C\u5DE5\u652F\u4ED8\u7684\u73B0\u91D1
p2364
I3
I0
tp2365
sVG6112000
p2366
(V\u8D22\u52A1\u8D39\u7528
p2367
I3
I1
tp2368
sVH2100000
p2369
(V\u6295\u8D44\u6D3B\u52A8\u4EA7\u751F\u7684\u73B0\u91D1\u6D41\u5165\u5C0F\u8BA1
p2370
I3
I0
tp2371
sVH6110000
p2372
(V\u9884\u63D0\u8D39\u7528\u589E\u52A0(\u51CF:\u51CF\u5C11)
p2373
I3
I0
tp2374
sVB2155000
p2375
(V\u56FD\u5185\u7968\u8BC1\u7ED3\u7B97
p2376
I1
I0
tp2377
sVH2203000
p2378
(V\u503A\u6743\u6027\u6295\u8D44\u6240\u652F\u4ED8\u7684\u73B0\u91D1
p2379
I3
I0
tp2380
sVG2115000
p2381
(V\u5356\u51FA\u56DE\u8D2D\u8BC1\u5238\u7684\u589E\u52A0(\u51CF:\u51CF\u5C11)
p2382
I3
I1
tp2383
sVD1215000
p2384
(V\u9500\u552E\u8D39\u7528 
p2385
I2
I1
tp2386
sVH1107000
p2387
(V\u5438\u6536\u7684\u5B58\u6B3E
p2388
I3
I0
tp2389
sVG1113000
p2390
(V\u5411\u4E2D\u592E\u94F6\u884C\u501F\u6B3E\u6536\u5230\u7684\u73B0\u91D1\u51C0\u989D
p2391
I3
I1
tp2392
sVD2302000
p2393
(V\u51CF:\u5E94\u4ED8\u4F18\u5148\u80A1\u80A1\u5229
p2394
I2
I1
tp2395
sVD2201000
p2396
(V\u53EF\u4F9B\u5206\u914D\u7684\u5229\u6DA6 
p2397
I2
I1
tp2398
sVD1216000
p2399
(V\u8D22\u52A1\u8D39\u7528 
p2400
I2
I1
tp2401
sVB1381000
p2402
(V\u5F85\u5904\u7406\u56FA\u5B9A\u8D44\u4EA7\u51C0\u635F\u5931
p2403
I1
I0
tp2404
sVG6201000
p2405
(V\u4EE5\u56FA\u5B9A\u8D44\u4EA7\u507F\u8FD8\u503A\u52A1
p2406
I3
I1
tp2407
sVA2143000
p2408
(V\u4EE3\u53D1\u884C\u8BC1\u5238\u6B3E
p2409
I1
I1
tp2410
sVG1225000
p2411
(V\u507F\u8FD8\u62C6\u5165\u8D44\u91D1\u652F\u4ED8\u7684\u73B0\u91D1\u51C0\u989D
p2412
I3
I1
tp2413
sVG6108000
p2414
(V\u5F85\u644A\u8D39\u7528\u7684\u51CF\u5C11(\u51CF:\u589E\u52A0)
p2415
I3
I1
tp2416
sVE2307000
p2417
(V\u80A1\u5229\u6240\u5F97\u7A0E
p2418
I2
I0
tp2419
sVG1130000
p2420
(V\u8BC1\u5238\u9500\u552E\u5DEE\u4EF7\u6536\u5165\u6536\u5230\u7684\u73B0\u91D1
p2421
I3
I1
tp2422
sVD1206000
p2423
(V\u624B\u7EED\u8D39\u652F\u51FA 
p2424
I2
I1
tp2425
sVA1300000
p2426
(V\u65E0\u5F62\u8D44\u4EA7\u53CA\u5176\u4ED6\u8D44\u4EA7\u5408\u8BA1
p2427
I1
I1
tp2428
sVE1411000
p2429
(V\u672A\u786E\u8BA4\u7684\u6295\u8D44\u635F\u5931
p2430
I2
I0
tp2431
sVG1208000
p2432
(V\u8D37\u6B3E\u51C0\u589E\u52A0\u989D
p2433
I3
I1
tp2434
sVB2175000
p2435
(V\u9012\u5EF6\u635F\u76CA
p2436
I1
I0
tp2437
sVA1221000
p2438
(V\u79DF\u8D41\u8D44\u4EA7
p2439
I1
I1
tp2440
sVG2128000
p2441
(V\u53D6\u5F97\u957F\u671F\u503A\u5238\u6295\u8D44\u5229\u606F\u6536\u5165\u6536\u5230\u7684\u73B0\u91D1
p2442
I3
I1
tp2443
sVE2203000
p2444
(V\u51CF:\u63D0\u53D6\u6CD5\u5B9A\u76C8\u4F59\u516C\u79EF
p2445
I2
I0
tp2446
sVH2205000
p2447
(V\u6295\u8D44\u6240\u652F\u4ED8\u7684\u73B0\u91D1
p2448
I3
I0
tp2449
sVG1231000
p2450
(V\u5229\u606F\u652F\u51FA\u652F\u4ED8\u7684\u73B0\u91D1(\u9664\u540C\u4E1A\u5F80\u6765\u5229\u606F)
p2451
I3
I1
tp2452
sVG6117000
p2453
(V\u5404\u79CD\u8BC1\u5238\u8D44\u4EA7\u7684\u51CF\u5C11(\u51CF:\u589E\u52A0)
p2454
I3
I1
tp2455
sVG1214000
p2456
(V\u8D34\u73B0\u589E\u52A0\u6D41\u51FA\u7684\u73B0\u91D1
p2457
I3
I1
tp2458
sVG4000000
p2459
(V\u6C47\u7387\u53D8\u52A8\u5BF9\u73B0\u91D1\u7684\u5F71\u54CD
p2460
I3
I1
tp2461
sVB1181000
p2462
(V\u5F85\u8F6C\u5176\u5B83\u4E1A\u52A1\u652F\u51FA
p2463
I1
I0
tp2464
sVG6144000
p2465
(V\u5E94\u4EA4\u7A0E\u91D1\u53CA\u9644\u52A0\u7684\u589E\u52A0(\u51CF:\u51CF\u5C11)
p2466
I3
I1
tp2467
sVA1211000
p2468
(V\u5E94\u6536\u79DF\u8D41\u6B3E
p2469
I1
I1
tp2470
sVA1211001
p2471
(V\u5E94\u6536\u8F6C\u79DF\u8D37\u6B3E
p2472
I1
I1
tp2473
sVH6300000
p2474
(V\u73B0\u91D1\u53CA\u73B0\u91D1\u7B49\u4EF7\u7269\u51C0\u589E\u52A0\u989D(\u95F4\u63A5\u6CD5)
p2475
I3
I0
tp2476
sVE1403000
p2477
(V\u7A0E\u540E\u5229\u6DA6
p2478
I2
I0
tp2479
sVG1102000
p2480
(V\u77ED\u671F\u8D37\u6B3E\u6536\u56DE\u4E0E\u53D1\u653E\u51C0\u989D
p2481
I3
I1
tp2482
sVG3101000
p2483
(V\u5438\u6536\u6743\u76CA\u6027\u6295\u8D44\u6536\u5230\u7684\u73B0\u91D1
p2484
I3
I1
tp2485
sVG2107000
p2486
(V\u4E70\u5165\u8FD4\u552E\u8BC1\u5238\u7684\u51CF\u5C11(\u51CF:\u589E\u52A0)
p2487
I3
I1
tp2488
sVG1238100
p2489
(V\u5176\u4E2D:\u652F\u4ED8\u7684\u6240\u5F97\u7A0E\u6B3E
p2490
I3
I1
tp2491
sVB2186000
p2492
(V\u4E00\u5E74\u5185\u5230\u671F\u7684\u957F\u671F\u8D1F\u503A
p2493
I1
I0
tp2494
sVG1117100
p2495
(V\u5176\u4E2D:\u62C6\u653E\u91D1\u878D\u673A\u6784\u8D44\u4EA7\u51C0\u989D
p2496
I3
I1
tp2497
sVD1209000
p2498
(V\u623F\u5730\u4EA7\u7ECF\u8425\u6210\u672C 
p2499
I2
I1
tp2500
sVG6105000
p2501
(V\u56FA\u5B9A\u8D44\u4EA7\u6298\u65E7
p2502
I3
I1
tp2503
sVB1414002
p2504
(V\u51CF:\u4E13\u6709\u6280\u672F\u51CF\u503C\u51C6\u5907
p2505
I1
I0
tp2506
sVA1163102
p2507
(V\u51CF:\u80A1\u7968\u6295\u8D44\u8DCC\u4EF7\u51C6\u5907
p2508
I1
I1
tp2509
sVG6302000
p2510
(V\u73B0\u91D1\u53CA\u73B0\u91D1\u7B49\u4EF7\u7269\u7684\u671F\u521D\u4F59\u989D
p2511
I3
I1
tp2512
sVA2172000
p2513
(V\u9884\u8BA1\u8D1F\u503A
p2514
I1
I1
tp2515
sVD1102000
p2516
(V\u5229\u606F\u6536\u5165 
p2517
I2
I1
tp2518
sVA1122000
p2519
(V\u5B58\u653E\u8054\u884C\u6B3E\u9879
p2520
I1
I1
tp2521
sVG2125000
p2522
(V\u878D\u8D44\u79DF\u8D41\u6536\u56DE\u7684\u672C\u91D1
p2523
I3
I1
tp2524
sVE2107000
p2525
(V\u52A0:\u5E74\u521D\u672A\u5206\u914D\u5229\u6DA6
p2526
I2
I0
tp2527
sVG2201000
p2528
(V\u8D2D\u5EFA\u56FA\u5B9A\u8D44\u4EA7\u3001\u65E0\u5F62\u8D44\u4EA7\u548C\u5176\u4ED6\u957F\u671F\u8D44\u4EA7\u6240\u652F\u4ED8\u7684\u73B0\u91D1
p2529
I3
I1
tp2530
sVH6117000
p2531
(V\u7ECF\u8425\u6027\u5E94\u6536\u9879\u76EE\u7684\u51CF\u5C11(\u51CF:\u589E\u52A0)
p2532
I3
I0
tp2533
sVG6107300
p2534
(V\u5F00\u529E\u8D39\u644A\u9500
p2535
I3
I1
tp2536
sVA2146000
p2537
(V\u5E94\u4ED8\u4EE3\u7406\u8BC1\u5238\u6B3E\u9879
p2538
I1
I1
tp2539
sVG1243000
p2540
(V\u652F\u4ED8\u7ED9\u804C\u5DE5\u53CA\u4E3A\u804C\u5DE5\u652F\u4ED8\u7684\u73B0\u91D1
p2541
I3
I1
tp2542
sVG3104000
p2543
(V\u501F\u6B3E\u6240\u6536\u5230\u7684\u73B0\u91D1
p2544
I3
I1
tp2545
sVD1409000
p2546
(V\u52A0\uFF1A\u5176\u5B83\u4E1A\u52A1\u6536\u5165
p2547
I2
I1
tp2548
sVD1301000
p2549
(V\u8425\u4E1A\u7A0E\u91D1\u53CA\u9644\u52A0 
p2550
I2
I1
tp2551
sVG6139000
p2552
(V\u4EE3\u5151\u4ED8\u8BC1\u5238\u6B3E\u7684\u589E\u52A0(\u51CF:\u51CF\u5C11)
p2553
I3
I1
tp2554
sVD1411000
p2555
(V\u51CF\uFF1A\u5B58\u8D27\u8DCC\u4EF7\u635F\u5931
p2556
I2
I1
tp2557
sVH1213000
p2558
(V\u652F\u4ED8\u7684\u5404\u9879\u7A0E\u8D39
p2559
I3
I0
tp2560
sVB3212000
p2561
(V\u8D44\u672C\u516C\u79EF
p2562
I1
I0
tp2563
sVH1000000
p2564
(V\u7ECF\u8425\u6D3B\u52A8\u4EA7\u751F\u7684\u73B0\u91D1\u6D41\u91CF\u51C0\u989D(\u76F4\u63A5\u6CD5)
p2565
I3
I0
tp2566
sVH6105000
p2567
(V\u8BA1\u63D0\u7684\u8D44\u4EA7\u635F\u5931\u51C6\u5907
p2568
I3
I0
tp2569
sVA2121000
p2570
(V\u8054\u884C\u5B58\u653E\u6B3E\u9879
p2571
I1
I1
tp2572
sVE2119000
p2573
(V\u52A0:\u5176\u4ED6\u8F6C\u5165
p2574
I2
I0
tp2575
sVG6104320
p2576
(V\u5176\u4E2D:\u8D37\u6B3E\u5446\u5E10\u51C6\u5907
p2577
I3
I1
tp2578
sVG3202000
p2579
(V\u53D1\u751F\u7B79\u8D44\u8D39\u7528\u6240\u652F\u4ED8\u7684\u73B0\u91D1
p2580
I3
I1
tp2581
sVD2107000
p2582
(V\u5916\u5E01\u672A\u5206\u914D\u5229\u6DA6\u6298\u7B97\u5DEE\u989D 
p2583
I2
I1
tp2584
sVB2156000
p2585
(V\u56FD\u9645\u7968\u8BC1\u7ED3\u7B97
p2586
I1
I0
tp2587
sVG1238200
p2588
(V\u5176\u4E2D:\u5B9E\u9645\u4EA4\u7EB3\u7684\u589E\u503C\u7A0E
p2589
I3
I1
tp2590
sVH2201500
p2591
(V\u8D2D\u4E70\u548C\u5904\u7F6E\u5B50\u516C\u53F8\u53CA\u5176\u4ED6\u8425\u4E1A\u5355\u4F4D\u6240\u652F\u4ED8\u7684\u73B0\u91D1
p2592
I3
I0
tp2593
sVA3200000
p2594
(V\u80A1\u4E1C\u6743\u76CA\u5408\u8BA1
p2595
I1
I1
tp2596
sVG2122000
p2597
(V\u6D41\u52A8\u8D44\u91D1\u53D8\u52A8\u4EA7\u751F\u7684\u73B0\u91D1\u6D41\u91CF\u51C0\u989D
p2598
I3
I1
tp2599
s.