(dp1
S'get test'
p2
((lp3
S'test'
p4
ag4
aS'echo'
p5
aS'stop'
p6
a(l(dtp7
sS'new'
p8
((lp9
S'unittest.newtest'
p10
aS'ccc'
p11
aS'start'
p12
ag6
a(lp13
I27532024
a(dp14
tp15
sS'authkey'
p16
((lp17
S'invoker.auth'
p18
aS'auth'
p19
aS'authKey'
p20
ag6
a(l(dtp21
sS'queryuser'
p22
((lp23
S'authdbcore'
p24
ag24
aS'getUsrAuth'
p25
ag6
a(lp26
I27529584
a(dtp27
sS'allsite'
p28
((lp29
g24
ag24
aS'getAllInvoker'
p30
ag6
a(lp31
I27516976
aI27519136
a(dtp32
s.