(dp1
S'get test'
p2
((lp3
S'test'
p4
ag4
aS'echo'
p5
aS'stop'
p6
a(l(dtp7
sS'new'
p8
((lp9
S'unittest.newtest'
p10
aS'ccc'
p11
aS'start'
p12
ag6
a(l(dtp13
sS'authkey'
p14
((lp15
S'invoker.auth'
p16
aS'auth'
p17
aS'authKey'
p18
ag6
a(l(dtp19
sS'queryuser'
p20
((lp21
S'authdbcore'
p22
ag22
aS'getUsrAuth'
p23
ag6
a(l(dp24
tp25
sS'allsite'
p26
((lp27
g22
ag22
aS'getAllInvoker'
p28
ag6
a(l(dtp29
s.